(dp0
S'R.E.M.'
p1
(dp2
VReveal
p3
(lp4
(lp5
F0.32
aF0.424
aF0.915
aF0.0105
aF0.404
aF0.0392
aF0.428
aa(lp6
F0.146
aF0.694
aF0.677
aF0.00259
aF0.152
aF0.0348
aF0.766
aa(lp7
F0.0245
aF0.397
aF0.808
aF3.1e-05
aF0.288
aF0.0292
aF0.711
aa(lp8
F0.124
aF0.375
aF0.578
aF2.99e-05
aF0.0426
aF0.0314
aF0.395
aa(lp9
F0.103
aF0.266
aF0.651
aF1.35e-06
aF0.16
aF0.0287
aF0.353
aa(lp10
F0.762
aF0.522
aF0.432
aF0.0111
aF0.102
aF0.031
aF0.233
aa(lp11
F0.235
aF0.533
aF0.617
aF0.0354
aF0.162
aF0.028
aF0.37
aa(lp12
F0.0156
aF0.468
aF0.743
aF1.09e-06
aF0.137
aF0.0324
aF0.454
aa(lp13
F0.313
aF0.406
aF0.605
aF0.13
aF0.0765
aF0.0274
aF0.184
aa(lp14
F0.44
aF0.4
aF0.484
aF1.2e-05
aF0.142
aF0.0258
aF0.326
aa(lp15
F0.278
aF0.212
aF0.56
aF0.00494
aF0.245
aF0.0281
aF0.245
aa(lp16
F0.204
aF0.559
aF0.544
aF0.731
aF0.174
aF0.0233
aF0.584
aasVMonster
p17
(lp18
(lp19
F0.183
aF0.399
aF0.914
aF0.367
aF0.244
aF0.0319
aF0.692
aa(lp20
F0.241
aF0.636
aF0.841
aF0.0179
aF0.14
aF0.026
aF0.867
aa(lp21
F0.262
aF0.683
aF0.898
aF0.186
aF0.313
aF0.0484
aF0.228
aa(lp22
F0.0989
aF0.625
aF0.683
aF0.876
aF0.133
aF0.0269
aF0.447
aa(lp23
F0.161
aF0.445
aF0.91
aF0.248
aF0.354
aF0.0437
aF0.761
aa(lp24
F0.144
aF0.334
aF0.582
aF0.0153
aF0.255
aF0.0306
aF0.378
aa(lp25
F0.945
aF0.544
aF0.266
aF0.7
aF0.0648
aF0.024
aF0.651
aa(lp26
F0.14
aF0.69
aF0.607
aF0.453
aF0.113
aF0.0397
aF0.412
aa(lp27
F0.0702
aF0.616
aF0.791
aF0.785
aF0.239
aF0.0273
aF0.706
aa(lp28
F0.397
aF0.0736
aF0.444
aF0.86
aF0.393
aF0.0475
aF0.431
aa(lp29
F0.115
aF0.353
aF0.985
aF1.08e-05
aF0.181
aF0.0549
aF0.394
aa(lp30
F0.0842
aF0.395
aF0.498
aF0.0568
aF0.11
aF0.0289
aF0.106
aasVCollapse Into Now
p31
(lp32
(lp33
F0.000134
aF0.235
aF0.931
aF0.00157
aF0.475
aF0.0644
aF0.352
aa(lp34
F2.66e-05
aF0.291
aF0.965
aF0.000548
aF0.124
aF0.0666
aF0.179
aa(lp35
F0.00103
aF0.594
aF0.747
aF0.00244
aF0.354
aF0.0273
aF0.255
aa(lp36
F0.0135
aF0.513
aF0.698
aF0.00387
aF0.0655
aF0.0248
aF0.41
aa(lp37
F0.0139
aF0.391
aF0.871
aF0.0192
aF0.068
aF0.0407
aF0.36
aa(lp38
F0.3
aF0.414
aF0.664
aF0.819
aF0.197
aF0.027
aF0.382
aa(lp39
F1.47e-05
aF0.256
aF0.84
aF0.917
aF0.0712
aF0.045
aF0.489
aa(lp40
F0.25
aF0.404
aF0.507
aF0.101
aF0.128
aF0.0282
aF0.35
aa(lp41
F0.000904
aF0.296
aF0.918
aF0.16
aF0.334
aF0.0438
aF0.399
aa(lp42
F0.000149
aF0.23
aF0.9
aF0.000261
aF0.256
aF0.0421
aF0.559
aa(lp43
F0.202
aF0.505
aF0.578
aF0.0019
aF0.11
aF0.0301
aF0.27
aa(lp44
F0.572
aF0.173
aF0.705
aF0.499
aF0.227
aF0.0501
aF0.0758
aasVR.E.M. Live
p45
(lp46
(lp47
F0.0319
aF0.407
aF0.966
aF0.0369
aF0.987
aF0.118
aF0.153
aa(lp48
F0.172
aF0.473
aF0.975
aF2.86e-05
aF0.682
aF0.104
aF0.205
aa(lp49
F0.0863
aF0.223
aF0.876
aF0.000532
aF0.976
aF0.0659
aF0.272
aa(lp50
F0.109
aF0.43
aF0.899
aF0.000111
aF0.837
aF0.0714
aF0.425
aa(lp51
F0.21
aF0.446
aF0.721
aF0.0483
aF0.935
aF0.0292
aF0.387
aa(lp52
F0.144
aF0.353
aF0.951
aI0
aF0.927
aF0.0859
aF0.557
aa(lp53
F0.047
aF0.415
aF0.987
aF1.01e-05
aF0.704
aF0.137
aF0.171
aa(lp54
F0.0652
aF0.489
aF0.85
aF0.000843
aF0.976
aF0.0395
aF0.316
aa(lp55
F0.135
aF0.24
aF0.9
aF5.5e-06
aF0.954
aF0.124
aF0.179
aa(lp56
F0.0639
aF0.255
aF0.815
aF6e-06
aF0.989
aF0.0371
aF0.299
aa(lp57
F0.0161
aF0.392
aF0.953
aF0.00508
aF0.952
aF0.315
aF0.183
aa(lp58
F0.5
aF0.246
aF0.554
aF0.0131
aF0.972
aF0.0315
aF0.301
aa(lp59
F0.0495
aF0.54
aF0.847
aF0.00024
aF0.98
aF0.0437
aF0.443
aa(lp60
F0.0686
aF0.433
aF0.927
aI0
aF0.983
aF0.0822
aF0.263
aa(lp61
F0.00315
aF0.38
aF0.935
aF0.00575
aF0.989
aF0.0984
aF0.365
aa(lp62
F0.115
aF0.253
aF0.89
aF5.59e-06
aF0.973
aF0.196
aF0.0772
aa(lp63
F0.043
aF0.579
aF0.966
aF5.66e-06
aF0.974
aF0.054
aF0.518
aa(lp64
F0.0204
aF0.143
aF0.982
aF2.12e-06
aF0.991
aF0.377
aF0.33
aa(lp65
F0.227
aF0.266
aF0.707
aF0.0121
aF0.964
aF0.0532
aF0.29
aa(lp66
F0.0271
aF0.37
aF0.938
aF0.00268
aF0.695
aF0.0885
aF0.533
aa(lp67
F0.0396
aF0.381
aF0.977
aI0
aF0.975
aF0.371
aF0.199
aa(lp68
F0.0414
aF0.217
aF0.849
aF0.0825
aF0.492
aF0.0681
aF0.138
aasVAround The Sun
p69
(lp70
(lp71
F0.085
aF0.364
aF0.665
aI0
aF0.118
aF0.0279
aF0.413
aa(lp72
F0.0503
aF0.54
aF0.904
aI0
aF0.103
aF0.0285
aF0.616
aa(lp73
F0.031
aF0.581
aF0.577
aF0.00083
aF0.0643
aF0.0297
aF0.877
aa(lp74
F0.619
aF0.507
aF0.571
aF0.000383
aF0.126
aF0.0287
aF0.202
aa(lp75
F0.092
aF0.513
aF0.636
aF0.0715
aF0.117
aF0.0271
aF0.412
aa(lp76
F0.199
aF0.363
aF0.448
aF0.00017
aF0.398
aF0.0279
aF0.299
aa(lp77
F0.177
aF0.539
aF0.669
aF1.88e-05
aF0.132
aF0.0313
aF0.507
aa(lp78
F0.0525
aF0.409
aF0.602
aF0.000121
aF0.0985
aF0.0251
aF0.287
aa(lp79
F0.07
aF0.602
aF0.748
aF3.57e-05
aF0.114
aF0.0255
aF0.657
aa(lp80
F0.381
aF0.432
aF0.569
aF0.129
aF0.15
aF0.0298
aF0.254
aa(lp81
F0.234
aF0.499
aF0.505
aF0.000353
aF0.0929
aF0.0239
aF0.315
aa(lp82
F0.0544
aF0.593
aF0.508
aF0.024
aF0.275
aF0.0272
aF0.437
aa(lp83
F0.16
aF0.502
aF0.555
aF0.0411
aF0.124
aF0.0258
aF0.139
aasVNew Adventures In Hi-Fi
p84
(lp85
(lp86
F0.0168
aF0.399
aF0.408
aF0.283
aF0.136
aF0.0309
aF0.444
aa(lp87
F0.00191
aF0.375
aF0.892
aF1.53e-05
aF0.563
aF0.0963
aF0.562
aa(lp88
F0.0674
aF0.408
aF0.663
aF0.0969
aF0.298
aF0.0261
aF0.453
aa(lp89
F0.00471
aF0.175
aF0.721
aF0.737
aF0.118
aF0.0454
aF0.325
aa(lp90
F0.19
aF0.352
aF0.62
aF0.000245
aF0.0852
aF0.0328
aF0.334
aa(lp91
F0.112
aF0.205
aF0.819
aF0.000677
aF0.12
aF0.0512
aF0.265
aa(lp92
F0.0393
aF0.276
aF0.832
aF0.00987
aF0.0924
aF0.052
aF0.495
aa(lp93
F0.00704
aF0.416
aF0.852
aF0.0011
aF0.174
aF0.0443
aF0.427
aa(lp94
F0.766
aF0.315
aF0.419
aF0.445
aF0.115
aF0.0311
aF0.334
aa(lp95
F0.000333
aF0.348
aF0.844
aF0.156
aF0.33
aF0.038
aF0.575
aa(lp96
F0.901
aF0.377
aF0.448
aF0.866
aF0.102
aF0.0487
aF0.438
aa(lp97
F0.0144
aF0.194
aF0.835
aF0.000526
aF0.112
aF0.0529
aF0.643
aa(lp98
F0.151
aF0.356
aF0.702
aF0.0385
aF0.0991
aF0.0314
aF0.47
aa(lp99
F0.0866
aF0.531
aF0.812
aF0.739
aF0.283
aF0.0365
aF0.491
aasVUp
p100
(lp101
(lp102
F0.507
aF0.589
aF0.316
aF0.901
aF0.111
aF0.0275
aF0.129
aa(lp103
F0.00306
aF0.544
aF0.704
aF0.0447
aF0.333
aF0.0245
aF0.778
aa(lp104
F0.735
aF0.465
aF0.432
aF0.547
aF0.0684
aF0.0271
aF0.361
aa(lp105
F0.00146
aF0.454
aF0.577
aF0.000114
aF0.171
aF0.0291
aF0.192
aa(lp106
F0.782
aF0.577
aF0.336
aF0.906
aF0.11
aF0.0252
aF0.255
aa(lp107
F0.0975
aF0.521
aF0.442
aF0.000422
aF0.0855
aF0.0292
aF0.489
aa(lp108
F0.251
aF0.362
aF0.305
aF0.0032
aF0.341
aF0.0312
aF0.186
aa(lp109
F0.661
aF0.492
aF0.406
aF0.0168
aF0.127
aF0.0276
aF0.209
aa(lp110
F0.19
aF0.548
aF0.559
aF0.085
aF0.367
aF0.0325
aF0.189
aa(lp111
F0.379
aF0.514
aF0.689
aF0.548
aF0.0401
aF0.0276
aF0.68
aa(lp112
F0.157
aF0.327
aF0.391
aF2.18e-06
aF0.087
aF0.032
aF0.112
aa(lp113
F0.744
aF0.326
aF0.344
aF0.0137
aF0.0845
aF0.0287
aF0.21
aa(lp114
F0.269
aF0.431
aF0.4
aF0.531
aF0.26
aF0.0255
aF0.261
aa(lp115
F0.869
aF0.372
aF0.414
aF3.35e-05
aF0.191
aF0.0285
aF0.284
aasVAccelerate
p116
(lp117
(lp118
F0.00483
aF0.191
aF0.924
aF9.3e-05
aF0.464
aF0.0536
aF0.623
aa(lp119
F0.000499
aF0.404
aF0.842
aI0
aF0.344
aF0.0341
aF0.599
aa(lp120
F0.00512
aF0.446
aF0.676
aF0.00209
aF0.307
aF0.0487
aF0.78
aa(lp121
F0.0975
aF0.443
aF0.701
aI0
aF0.059
aF0.0397
aF0.355
aa(lp122
F0.0323
aF0.169
aF0.607
aF0.00755
aF0.298
aF0.0317
aF0.719
aa(lp123
F0.00111
aF0.299
aF0.898
aF6.08e-06
aF0.0955
aF0.0422
aF0.439
aa(lp124
F0.209
aF0.252
aF0.675
aF7.8e-05
aF0.184
aF0.0302
aF0.311
aa(lp125
F0.00989
aF0.328
aF0.866
aF0.0197
aF0.196
aF0.0339
aF0.478
aa(lp126
F0.00728
aF0.364
aF0.756
aF0.0735
aF0.119
aF0.0336
aF0.344
aa(lp127
F0.0558
aF0.391
aF0.924
aF0.000283
aF0.558
aF0.0421
aF0.694
aa(lp128
F0.000183
aF0.422
aF0.9
aF0.000514
aF0.223
aF0.0554
aF0.763
aasVLive At The Olympia
p129
(lp130
(lp131
F0.000261
aF0.217
aF0.991
aF0.262
aF0.991
aF0.21
aF0.136
aa(lp132
F0.000485
aF0.328
aF0.966
aF0.000254
aF0.959
aF0.0477
aF0.626
aa(lp133
F0.488
aF0.329
aF0.84
aF4.92e-05
aF0.867
aF0.0648
aF0.539
aa(lp134
F0.00137
aF0.558
aF0.858
aF2e-05
aF0.801
aF0.0534
aF0.478
aa(lp135
F0.0112
aF0.43
aF0.952
aI0
aF0.973
aF0.056
aF0.63
aa(lp136
F5.44e-05
aF0.423
aF0.9
aF0.0318
aF0.994
aF0.0349
aF0.487
aa(lp137
F0.0214
aF0.364
aF0.874
aF7.15e-05
aF0.924
aF0.0414
aF0.485
aa(lp138
F0.0381
aF0.237
aF0.887
aF0.00176
aF0.901
aF0.0488
aF0.466
aa(lp139
F0.16
aF0.438
aF0.897
aF0.000254
aF0.976
aF0.0381
aF0.517
aa(lp140
F0.0537
aF0.505
aF0.957
aF0.00516
aF0.975
aF0.0337
aF0.802
aa(lp141
F0.000685
aF0.346
aF0.933
aF6.47e-06
aF0.968
aF0.074
aF0.26
aa(lp142
F0.00125
aF0.321
aF0.943
aF2.59e-05
aF0.969
aF0.0545
aF0.425
aa(lp143
F0.05
aF0.246
aF0.639
aF0.057
aF0.857
aF0.0386
aF0.0957
aa(lp144
F0.000407
aF0.41
aF0.933
aF2.55e-05
aF0.948
aF0.037
aF0.644
aa(lp145
F0.00149
aF0.366
aF0.89
aI0
aF0.972
aF0.0525
aF0.676
aa(lp146
F0.0398
aF0.412
aF0.93
aF0.00227
aF0.762
aF0.0498
aF0.677
aa(lp147
F0.000453
aF0.308
aF0.987
aF0.000129
aF0.94
aF0.095
aF0.441
aa(lp148
F0.000826
aF0.428
aF0.971
aI0
aF0.763
aF0.0613
aF0.535
aa(lp149
F0.000487
aF0.493
aF0.964
aI0
aF0.804
aF0.0482
aF0.476
aa(lp150
F0.00431
aF0.417
aF0.835
aI0
aF0.887
aF0.0817
aF0.493
aa(lp151
F0.0256
aF0.324
aF0.669
aI0
aF0.915
aF0.0277
aF0.33
aa(lp152
F0.0212
aF0.396
aF0.811
aI0
aF0.951
aF0.0538
aF0.254
aa(lp153
F0.088
aF0.19
aF0.66
aF2.15e-06
aF0.943
aF0.0333
aF0.271
aa(lp154
F1.76e-05
aF0.285
aF0.953
aF0.000142
aF0.727
aF0.0454
aF0.348
aa(lp155
F0.00328
aF0.229
aF0.861
aF6.71e-06
aF0.958
aF0.165
aF0.481
aa(lp156
F0.00135
aF0.186
aF0.952
aF4.94e-05
aF0.98
aF0.0668
aF0.576
aa(lp157
F0.0181
aF0.317
aF0.953
aF9.06e-05
aF0.956
aF0.0725
aF0.735
aa(lp158
F7.57e-05
aF0.429
aF0.963
aF0.0141
aF0.984
aF0.06
aF0.766
aa(lp159
F0.0116
aF0.389
aF0.721
aF3.93e-05
aF0.694
aF0.0259
aF0.432
aa(lp160
F0.0939
aF0.467
aF0.974
aI0
aF0.973
aF0.0488
aF0.805
aa(lp161
F0.0109
aF0.441
aF0.987
aF0.000181
aF0.972
aF0.0998
aF0.485
aa(lp162
F0.0158
aF0.399
aF0.901
aF0.00714
aF0.972
aF0.0472
aF0.504
aa(lp163
F0.00016
aF0.363
aF0.969
aF4.17e-05
aF0.925
aF0.0408
aF0.59
aa(lp164
F0.356
aF0.432
aF0.642
aI0
aF0.968
aF0.042
aF0.455
aa(lp165
F0.241
aF0.459
aF0.77
aF8.5e-06
aF0.936
aF0.0602
aF0.715
aa(lp166
F0.0137
aF0.427
aF0.909
aI0
aF0.59
aF0.183
aF0.512
aa(lp167
F9.67e-05
aF0.354
aF0.913
aF1.82e-06
aF0.939
aF0.0423
aF0.621
aa(lp168
F0.000699
aF0.43
aF0.916
aF2.46e-06
aF0.968
aF0.0374
aF0.616
aa(lp169
F0.000507
aF0.279
aF0.91
aF0.000438
aF0.975
aF0.0429
aF0.582
aasVAutomatic For The People
p170
(lp171
(lp172
F0.164
aF0.476
aF0.432
aF0.00105
aF0.227
aF0.0283
aF0.238
aa(lp173
F0.0841
aF0.408
aF0.54
aF0.00106
aF0.0901
aF0.0386
aF0.651
aa(lp174
F0.0733
aF0.649
aF0.835
aF2.71e-06
aF0.34
aF0.0303
aF0.789
aa(lp175
F0.609
aF0.491
aF0.334
aF0.0221
aF0.114
aF0.0243
aF0.184
aa(lp176
F0.977
aF0.311
aF0.116
aF0.905
aF0.087
aF0.0483
aF0.144
aa(lp177
F0.36
aF0.186
aF0.243
aF0.000417
aF0.104
aF0.0353
aF0.121
aa(lp178
F0.0933
aF0.685
aF0.639
aF1.17e-05
aF0.0543
aF0.027
aF0.299
aa(lp179
F0.0213
aF0.613
aF0.839
aF0.00286
aF0.118
aF0.0296
aF0.832
aa(lp180
F0.148
aF0.16
aF0.332
aF0.795
aF0.162
aF0.0357
aF0.179
aa(lp181
F0.44
aF0.668
aF0.694
aF0.000442
aF0.188
aF0.026
aF0.661
aa(lp182
F0.811
aF0.561
aF0.385
aF4.99e-06
aF0.0995
aF0.0303
aF0.551
aa(lp183
F0.23
aF0.406
aF0.447
aI0
aF0.139
aF0.0272
aF0.278
aassS'Snow Patrol'
p184
(dp185
VUp To Now
p186
(lp187
(lp188
F0.000401
aF0.576
aF0.815
aF0.00232
aF0.0966
aF0.0317
aF0.501
aa(lp189
F0.267
aF0.561
aF0.546
aF9.81e-06
aF0.137
aF0.0255
aF0.175
aa(lp190
F0.000834
aF0.554
aF0.703
aF1.31e-05
aF0.122
aF0.025
aF0.451
aa(lp191
F0.511
aF0.542
aF0.39
aI0
aF0.0978
aF0.0255
aF0.418
aa(lp192
F0.00284
aF0.593
aF0.681
aF0.249
aF0.114
aF0.0798
aF0.566
aa(lp193
F0.0249
aF0.54
aF0.891
aF1.44e-05
aF0.029
aF0.034
aF0.216
aa(lp194
F0.41
aF0.668
aF0.384
aF0.205
aF0.119
aF0.0364
aF0.498
aa(lp195
F5.09e-05
aF0.46
aF0.922
aF0.0821
aF0.112
aF0.0487
aF0.457
aa(lp196
F0.000314
aF0.518
aF0.969
aF2.21e-06
aF0.121
aF0.0524
aF0.554
aa(lp197
F0.379
aF0.598
aF0.621
aF0.61
aF0.118
aF0.0237
aF0.492
aa(lp198
F0.00186
aF0.519
aF0.605
aF0.00129
aF0.272
aF0.0258
aF0.321
aa(lp199
F0.0197
aF0.679
aF0.772
aF0.694
aF0.104
aF0.0469
aF0.915
aa(lp200
F0.517
aF0.628
aF0.49
aF0.000104
aF0.106
aF0.0272
aF0.614
aa(lp201
F0.00157
aF0.482
aF0.757
aF0.00345
aF0.0904
aF0.0398
aF0.381
aa(lp202
F0.619
aF0.249
aF0.428
aF1.58e-05
aF0.97
aF0.0332
aF0.0524
aa(lp203
F0.0023
aF0.518
aF0.941
aF6.47e-06
aF0.162
aF0.054
aF0.415
aa(lp204
F0.154
aF0.696
aF0.742
aF0.000142
aF0.0941
aF0.0301
aF0.79
aa(lp205
F0.967
aF0.372
aF0.397
aF2.27e-06
aF0.134
aF0.0303
aF0.0774
aa(lp206
F0.000453
aF0.375
aF0.661
aF2.63e-05
aF0.154
aF0.0289
aF0.185
aa(lp207
F0.668
aF0.534
aF0.52
aI0
aF0.147
aF0.0272
aF0.339
aa(lp208
F0.0612
aF0.478
aF0.765
aF1.66e-06
aF0.12
aF0.0394
aF0.0901
aa(lp209
F0.000699
aF0.495
aF0.886
aF0.0284
aF0.811
aF0.0276
aF0.457
aa(lp210
F0.000737
aF0.527
aF0.767
aF0.00171
aF0.196
aF0.0298
aF0.0714
aa(lp211
F0.753
aF0.193
aF0.376
aF5.1e-05
aF0.132
aF0.0333
aF0.13
aa(lp212
F0.00946
aF0.603
aF0.294
aF0.127
aF0.116
aF0.0337
aF0.529
aa(lp213
F0.0269
aF0.447
aF0.714
aF0.0129
aF0.177
aF0.0278
aF0.687
aa(lp214
F0.291
aF0.734
aF0.696
aF0.00153
aF0.132
aF0.036
aF0.475
aa(lp215
F2.44e-05
aF0.413
aF0.886
aF5.21e-06
aF0.0313
aF0.0314
aF0.339
aa(lp216
F0.0285
aF0.394
aF0.931
aF0.423
aF0.444
aF0.0674
aF0.379
aa(lp217
F0.894
aF0.226
aF0.24
aF2.77e-05
aF0.689
aF0.032
aF0.0415
aasVGreatest Hits
p218
(lp219
(lp220
F0.347
aF0.41
aF0.543
aF0.00704
aF0.12
aF0.0281
aF0.0958
aa(lp221
F0.278
aF0.564
aF0.546
aF2.16e-05
aF0.11
aF0.0261
aF0.128
aa(lp222
F0.000445
aF0.417
aF0.659
aF2.78e-05
aF0.129
aF0.0298
aF0.218
aa(lp223
F0.489
aF0.543
aF0.378
aI0
aF0.098
aF0.0254
aF0.37
aa(lp224
F0.0173
aF0.744
aF0.722
aF5.41e-06
aF0.089
aF0.0306
aF0.962
aa(lp225
F0.000316
aF0.578
aF0.814
aF0.00578
aF0.0921
aF0.0323
aF0.449
aa(lp226
F0.0211
aF0.541
aF0.886
aF1.92e-05
aF0.0297
aF0.033
aF0.255
aa(lp227
F0.000822
aF0.524
aF0.79
aF0.0016
aF0.139
aF0.0304
aF0.0509
aa(lp228
F0.162
aF0.693
aF0.742
aF0.000245
aF0.0897
aF0.029
aF0.85
aa(lp229
F0.000583
aF0.567
aF0.717
aF2.59e-05
aF0.115
aF0.0238
aF0.357
aa(lp230
F0.523
aF0.652
aF0.316
aF5.77e-06
aF0.078
aF0.0274
aF0.24
aa(lp231
F0.000437
aF0.499
aF0.895
aF0.0321
aF0.6
aF0.0297
aF0.534
aa(lp232
F0.0024
aF0.524
aF0.948
aF3.67e-06
aF0.216
aF0.0581
aF0.396
aa(lp233
F0.182
aF0.382
aF0.455
aF0.000129
aF0.0929
aF0.0289
aF0.0619
aasVSnow Patrol - Best of the Jeepster Years: 1997-2001
p234
(lp235
(lp236
F0.014
aF0.386
aF0.453
aF0.0587
aF0.0921
aF0.0299
aF0.126
aa(lp237
F0.483
aF0.622
aF0.393
aF0.000121
aF0.0943
aF0.0288
aF0.639
aa(lp238
F0.749
aF0.559
aF0.303
aF0.862
aF0.074
aF0.0621
aF0.0886
aa(lp239
F0.743
aF0.602
aF0.175
aF0.0187
aF0.169
aF0.0347
aF0.277
aa(lp240
F0.804
aF0.564
aF0.363
aF0.783
aF0.111
aF0.0315
aF0.41
aa(lp241
F0.506
aF0.3
aF0.232
aF0.473
aF0.103
aF0.0484
aF0.255
aa(lp242
F0.0059
aF0.486
aF0.666
aF0.837
aF0.139
aF0.0304
aF0.305
aa(lp243
F0.907
aF0.558
aF0.164
aF0.00795
aF0.161
aF0.0308
aF0.112
aa(lp244
F0.00681
aF0.328
aF0.603
aF0.175
aF0.0952
aF0.0352
aF0.0342
aa(lp245
F0.0053
aF0.595
aF0.302
aF0.16
aF0.121
aF0.032
aF0.605
aa(lp246
F0.00254
aF0.621
aF0.556
aF0.233
aF0.16
aF0.0288
aF0.349
aa(lp247
F0.000413
aF0.401
aF0.768
aF8.96e-05
aF0.33
aF0.0306
aF0.767
aasVFinal Straw
p248
(lp249
(lp250
F0.273
aF0.588
aF0.632
aF0.0189
aF0.581
aF0.0273
aF0.414
aa(lp251
F5.7e-05
aF0.48
aF0.923
aF0.0144
aF0.0893
aF0.0493
aF0.296
aa(lp252
F0.000899
aF0.603
aF0.888
aF0.0248
aF0.166
aF0.0369
aF0.668
aa(lp253
F0.00049
aF0.482
aF0.926
aF8.62e-05
aF0.102
aF0.054
aF0.434
aa(lp254
F0.000683
aF0.498
aF0.89
aF0.0476
aF0.562
aF0.0292
aF0.514
aa(lp255
F0.000542
aF0.579
aF0.807
aF0.00276
aF0.121
aF0.0326
aF0.401
aa(lp256
F0.000431
aF0.403
aF0.654
aF4.08e-05
aF0.166
aF0.0295
aF0.197
aa(lp257
F0.0496
aF0.523
aF0.367
aF0.00171
aF0.318
aF0.03
aF0.161
aa(lp258
F0.0252
aF0.444
aF0.729
aF0.0168
aF0.105
aF0.0286
aF0.392
aa(lp259
F0.00212
aF0.426
aF0.975
aF0.00364
aF0.11
aF0.0599
aF0.296
aa(lp260
F0.0362
aF0.528
aF0.615
aF0.0139
aF0.112
aF0.0305
aF0.282
aa(lp261
F0.268
aF0.534
aF0.447
aF0.153
aF0.18
aF0.0268
aF0.197
aasVA Hundred Million Suns
p262
(lp263
(lp264
F0.000492
aF0.456
aF0.681
aF0.000555
aF0.211
aF0.0319
aF0.0855
aa(lp265
F0.000711
aF0.565
aF0.714
aF1.71e-05
aF0.121
aF0.0242
aF0.395
aa(lp266
F0.00279
aF0.522
aF0.936
aF2.61e-06
aF0.107
aF0.0545
aF0.375
aa(lp267
F0.2
aF0.657
aF0.607
aF0.000664
aF0.0836
aF0.0328
aF0.676
aa(lp268
F0.324
aF0.745
aF0.705
aF0.000855
aF0.134
aF0.0376
aF0.423
aa(lp269
F0.000192
aF0.424
aF0.848
aF4.61e-06
aF0.217
aF0.0348
aF0.109
aa(lp270
F0.86
aF0.537
aF0.304
aF0.000357
aF0.358
aF0.03
aF0.149
aa(lp271
F0.116
aF0.507
aF0.392
aF0.00129
aF0.139
aF0.0288
aF0.161
aa(lp272
F0.00722
aF0.518
aF0.848
aF0.127
aF0.122
aF0.0352
aF0.346
aa(lp273
F0.0014
aF0.433
aF0.733
aI0
aF0.0737
aF0.0489
aF0.268
aa(lp274
F0.0717
aF0.258
aF0.664
aF0.0225
aF0.111
aF0.0427
aF0.0767
aasVFallen Empires
p275
(lp276
(lp277
F0.0445
aF0.537
aF0.806
aF0.446
aF0.122
aF0.0388
aF0.105
aa(lp278
F0.0221
aF0.739
aF0.699
aF6.48e-06
aF0.0973
aF0.0308
aF0.962
aa(lp279
F0.051
aF0.608
aF0.791
aF9.11e-05
aF0.104
aF0.0532
aF0.291
aa(lp280
F0.212
aF0.453
aF0.664
aF1.15e-05
aF0.151
aF0.0343
aF0.153
aa(lp281
F0.56
aF0.456
aF0.549
aF0.00101
aF0.0752
aF0.0318
aF0.109
aa(lp282
F0.0137
aF0.412
aF0.907
aF0.0516
aF0.118
aF0.041
aF0.178
aa(lp283
F0.533
aF0.591
aF0.714
aF0.517
aF0.123
aF0.0332
aF0.264
aa(lp284
F0.842
aF0.391
aF0.335
aF1.13e-05
aF0.183
aF0.035
aF0.223
aa(lp285
F0.309
aF0.351
aF0.52
aF0.00106
aF0.088
aF0.0308
aF0.193
aa(lp286
F0.0153
aF0.424
aF0.854
aF0.00963
aF0.619
aF0.0378
aF0.192
aa(lp287
F0.764
aF0.609
aF0.437
aF3.81e-05
aF0.0947
aF0.0267
aF0.349
aa(lp288
F0.00799
aF0.608
aF0.691
aF0.00528
aF0.626
aF0.0258
aF0.477
aa(lp289
F0.947
aF0.237
aF0.675
aF0.0318
aF0.786
aF0.132
aF0.194
aa(lp290
F0.969
aF0.361
aF0.476
aF0.652
aF0.22
aF0.0368
aF0.183
aasVEyes Open
p291
(lp292
(lp293
F6.77e-05
aF0.463
aF0.921
aF0.141
aF0.149
aF0.0456
aF0.486
aa(lp294
F0.000465
aF0.516
aF0.973
aF1.85e-06
aF0.102
aF0.0492
aF0.556
aa(lp295
F0.193
aF0.557
aF0.609
aF7.69e-05
aF0.135
aF0.0259
aF0.17
aa(lp296
F0.154
aF0.704
aF0.733
aF0.000194
aF0.0592
aF0.0292
aF0.846
aa(lp297
F0.000124
aF0.507
aF0.854
aF0.00598
aF0.182
aF0.0373
aF0.471
aa(lp298
F0.538
aF0.648
aF0.328
aF1.91e-05
aF0.0714
aF0.0273
aF0.198
aa(lp299
F0.182
aF0.344
aF0.473
aF0.000113
aF0.104
aF0.0279
aF0.0552
aa(lp300
F0.498
aF0.539
aF0.389
aI0
aF0.0946
aF0.0256
aF0.389
aa(lp301
F3.26e-05
aF0.473
aF0.956
aF0.0128
aF0.146
aF0.045
aF0.786
aa(lp302
F0.000789
aF0.524
aF0.777
aF0.00108
aF0.0994
aF0.0294
aF0.0788
aa(lp303
F0.743
aF0.259
aF0.265
aF0.000229
aF0.1
aF0.0335
aF0.0388
aasVLate Night Tales: Snow Patrol (Sampler)
p304
(lp305
(lp306
F0.013
aF0.724
aF0.664
aF3.05e-06
aF0.0805
aF0.0623
aF0.931
aa(lp307
F0.721
aF0.663
aF0.329
aF0.0206
aF0.128
aF0.0314
aF0.151
aa(lp308
F0.473
aF0.656
aF0.606
aF1.25e-06
aF0.116
aF0.11
aF0.846
aa(lp309
F0.962
aF0.626
aF0.458
aF0.662
aF0.119
aF0.122
aF0.735
aa(lp310
F0.756
aF0.445
aF0.461
aF0.0336
aF0.134
aF0.0299
aF0.357
aa(lp311
F0.0306
aF0.726
aF0.986
aF0.418
aF0.0442
aF0.0488
aF0.763
aa(lp312
F0.528
aF0.68
aF0.373
aF0.000193
aF0.0911
aF0.0314
aF0.312
aa(lp313
F0.549
aF0.728
aF0.165
aI0
aF0.136
aF0.843
aF0.416
aassS'The Police'
p314
(dp315
VReggatta De Blanc
p316
(lp317
(lp318
F0.0338
aF0.582
aF0.81
aF1.68e-05
aF0.202
aF0.0396
aF0.879
aa(lp319
F0.00119
aF0.363
aF0.916
aF0.0288
aF0.0946
aF0.0653
aF0.308
aa(lp320
F0.0416
aF0.535
aF0.957
aF0.00464
aF0.266
aF0.0622
aF0.749
aa(lp321
F0.0538
aF0.709
aF0.627
aF0.0014
aF0.0588
aF0.0781
aF0.717
aa(lp322
F0.000226
aF0.56
aF0.882
aF0.315
aF0.0517
aF0.0531
aF0.877
aa(lp323
F0.002
aF0.638
aF0.356
aF0.0218
aF0.172
aF0.055
aF0.266
aa(lp324
F0.0588
aF0.646
aF0.771
aI0
aF0.285
aF0.0829
aF0.868
aa(lp325
F0.0377
aF0.741
aF0.744
aF0.158
aF0.0529
aF0.129
aF0.865
aa(lp326
F0.214
aF0.579
aF0.843
aF0.013
aF0.113
aF0.0438
aF0.597
aa(lp327
F0.142
aF0.621
aF0.755
aF3.23e-05
aF0.064
aF0.0422
aF0.636
aa(lp328
F0.0241
aF0.299
aF0.968
aF0.00172
aF0.0734
aF0.141
aF0.394
aasVGhost In The Machine
p329
(lp330
(lp331
F0.294
aF0.839
aF0.659
aF0.0194
aF0.0353
aF0.064
aF0.875
aa(lp332
F0.127
aF0.535
aF0.745
aF0.0792
aF0.179
aF0.0335
aF0.365
aa(lp333
F0.48
aF0.515
aF0.399
aF0.29
aF0.0948
aF0.0323
aF0.154
aa(lp334
F0.117
aF0.727
aF0.758
aF0.231
aF0.0439
aF0.0302
aF0.939
aa(lp335
F0.000345
aF0.445
aF0.737
aF0.781
aF0.0852
aF0.03
aF0.788
aa(lp336
F0.0602
aF0.688
aF0.719
aF0.0105
aF0.573
aF0.0514
aF0.686
aa(lp337
F0.00815
aF0.569
aF0.923
aF3.72e-05
aF0.176
aF0.0723
aF0.647
aa(lp338
F0.00574
aF0.57
aF0.738
aF0.0133
aF0.241
aF0.0762
aF0.779
aa(lp339
F0.00386
aF0.288
aF0.898
aF0.00173
aF0.857
aF0.102
aF0.389
aa(lp340
F0.00366
aF0.556
aF0.672
aF0.0137
aF0.191
aF0.0308
aF0.377
aa(lp341
F0.415
aF0.348
aF0.588
aF0.000399
aF0.087
aF0.0402
aF0.225
aasVZenyatta Mondatta
p342
(lp343
(lp344
F0.0451
aF0.806
aF0.499
aF0.000729
aF0.038
aF0.0642
aF0.492
aa(lp345
F0.0125
aF0.617
aF0.518
aF0.1
aF0.165
aF0.0992
aF0.566
aa(lp346
F0.0674
aF0.768
aF0.656
aF0.00102
aF0.0985
aF0.0732
aF0.801
aa(lp347
F0.0547
aF0.817
aF0.753
aF0.0501
aF0.112
aF0.0331
aF0.963
aa(lp348
F0.0297
aF0.821
aF0.631
aF0.548
aF0.286
aF0.123
aF0.547
aa(lp349
F0.0526
aF0.641
aF0.762
aF0.000593
aF0.111
aF0.071
aF0.814
aa(lp350
F0.0777
aF0.788
aF0.54
aF0.0419
aF0.287
aF0.0512
aF0.827
aa(lp351
F0.0914
aF0.524
aF0.336
aF0.735
aF0.23
aF0.0259
aF0.201
aa(lp352
F0.0104
aF0.759
aF0.717
aF0.00905
aF0.0979
aF0.0416
aF0.947
aa(lp353
F0.00959
aF0.774
aF0.527
aF0.443
aF0.164
aF0.162
aF0.721
aa(lp354
F0.00395
aF0.538
aF0.804
aF0.849
aF0.121
aF0.0397
aF0.786
aasVSynchronicity
p355
(lp356
(lp357
F0.00453
aF0.435
aF0.908
aF0.0268
aF0.0781
aF0.0519
aF0.433
aa(lp358
F0.911
aF0.622
aF0.522
aF0.279
aF0.118
aF0.0478
aF0.938
aa(lp359
F0.0553
aF0.556
aF0.756
aF0.00314
aF0.159
aF0.0426
aF0.881
aa(lp360
F0.0596
aF0.24
aF0.764
aF0.00661
aF0.282
aF0.0959
aF0.595
aa(lp361
F0.17
aF0.739
aF0.68
aI0
aF0.0889
aF0.06
aF0.545
aa(lp362
F0.0922
aF0.416
aF0.837
aF0.0113
aF0.488
aF0.0426
aF0.547
aa(lp363
F0.56
aF0.813
aF0.46
aF0.0105
aF0.0724
aF0.0346
aF0.718
aa(lp364
F0.411
aF0.536
aF0.714
aF0.000187
aF0.0703
aF0.0334
aF0.68
aa(lp365
F0.0897
aF0.742
aF0.444
aF0.000329
aF0.0577
aF0.0351
aF0.588
aa(lp366
F0.13
aF0.449
aF0.244
aF0.000252
aF0.0932
aF0.063
aF0.315
aa(lp367
F0.034
aF0.662
aF0.506
aF1.6e-05
aF0.0933
aF0.186
aF0.808
aasVLive! (Remastered)
p368
(lp369
(lp370
F0.106
aF0.281
aF0.991
aF0.138
aF0.987
aF0.207
aF0.231
aa(lp371
F0.0222
aF0.394
aF0.857
aF0.000998
aF0.823
aF0.0811
aF0.64
aa(lp372
F0.00217
aF0.239
aF0.97
aF9.38e-05
aF0.948
aF0.0948
aF0.63
aa(lp373
F0.0104
aF0.619
aF0.602
aF0.0127
aF0.949
aF0.0435
aF0.5
aa(lp374
F0.0611
aF0.429
aF0.898
aF0.00024
aF0.979
aF0.067
aF0.567
aa(lp375
F0.00566
aF0.367
aF0.978
aF0.0565
aF0.937
aF0.0623
aF0.429
aa(lp376
F0.0516
aF0.47
aF0.824
aF0.0325
aF0.93
aF0.076
aF0.64
aa(lp377
F0.0765
aF0.466
aF0.895
aF6.18e-05
aF0.74
aF0.107
aF0.596
aa(lp378
F0.264
aF0.672
aF0.796
aF0.121
aF0.985
aF0.0553
aF0.638
aa(lp379
F0.00174
aF0.331
aF0.983
aF0.118
aF0.473
aF0.0482
aF0.638
aa(lp380
F0.0124
aF0.453
aF0.705
aF0.0497
aF0.934
aF0.0622
aF0.731
aa(lp381
F0.0257
aF0.393
aF0.887
aF0.0271
aF0.98
aF0.0872
aF0.492
aa(lp382
F0.00135
aF0.36
aF0.965
aF0.808
aF0.489
aF0.0671
aF0.559
aa(lp383
F0.0203
aF0.334
aF0.942
aF0.0504
aF0.799
aF0.0733
aF0.696
aa(lp384
F0.177
aF0.292
aF0.859
aF9.4e-06
aF0.977
aF0.35
aF0.32
aa(lp385
F0.0738
aF0.534
aF0.933
aI0
aF0.371
aF0.057
aF0.552
aa(lp386
F0.00234
aF0.286
aF0.893
aF6.12e-05
aF0.903
aF0.0457
aF0.464
aa(lp387
F0.365
aF0.666
aF0.628
aF2.67e-05
aF0.675
aF0.0438
aF0.505
aa(lp388
F0.0261
aF0.304
aF0.875
aF5.42e-05
aF0.967
aF0.208
aF0.332
aa(lp389
F0.0226
aF0.51
aF0.821
aI0
aF0.83
aF0.0491
aF0.635
aa(lp390
F0.0126
aF0.397
aF0.821
aF0.00166
aF0.957
aF0.0436
aF0.424
aa(lp391
F0.171
aF0.67
aF0.647
aF0.00557
aF0.957
aF0.0267
aF0.395
aa(lp392
F0.024
aF0.348
aF0.448
aF4.5e-05
aF0.752
aF0.0348
aF0.206
aa(lp393
F0.102
aF0.52
aF0.763
aF1.05e-06
aF0.891
aF0.0773
aF0.636
aa(lp394
F0.0623
aF0.634
aF0.825
aF8.17e-05
aF0.987
aF0.0338
aF0.527
aa(lp395
F0.03
aF0.342
aF0.719
aF0.000542
aF0.928
aF0.0529
aF0.115
aa(lp396
F0.461
aF0.638
aF0.682
aF7.39e-05
aF0.953
aF0.0335
aF0.448
aa(lp397
F0.0548
aF0.377
aF0.713
aF0.000431
aF0.98
aF0.086
aF0.402
aa(lp398
F0.00123
aF0.332
aF0.851
aF0.0102
aF0.818
aF0.0632
aF0.282
aa(lp399
F0.00536
aF0.401
aF0.731
aF0.000777
aF0.85
aF0.0517
aF0.349
aasVOutlandos D'Amour
p400
(lp401
(lp402
F0.0605
aF0.417
aF0.977
aF7.23e-06
aF0.0818
aF0.0682
aF0.587
aa(lp403
F0.0163
aF0.518
aF0.582
aF1.54e-06
aF0.0836
aF0.152
aF0.686
aa(lp404
F0.026
aF0.608
aF0.746
aF2.39e-06
aF0.043
aF0.354
aF0.734
aa(lp405
F0.235
aF0.64
aF0.612
aF0.0334
aF0.161
aF0.0352
aF0.633
aa(lp406
F0.00346
aF0.437
aF0.922
aF2.32e-06
aF0.0309
aF0.146
aF0.737
aa(lp407
F0.0628
aF0.745
aF0.782
aF0.000359
aF0.0547
aF0.303
aF0.895
aa(lp408
F0.0723
aF0.445
aF0.938
aF0.00045
aF0.249
aF0.0664
aF0.641
aa(lp409
F0.00197
aF0.515
aF0.862
aF0.000106
aF0.0548
aF0.122
aF0.819
aa(lp410
F0.799
aF0.607
aF0.258
aF0.00591
aF0.679
aF0.502
aF0.263
aa(lp411
F0.0353
aF0.683
aF0.875
aF0.83
aF0.3
aF0.0469
aF0.889
aasVCertifiable (Live in Buenos Aires)
p412
(lp413
(lp414
F0.0161
aF0.326
aF0.97
aF3.08e-06
aF0.992
aF0.297
aF0.34
aa(lp415
F0.00288
aF0.323
aF0.951
aF2.06e-06
aF0.898
aF0.155
aF0.371
aa(lp416
F0.000157
aF0.271
aF0.764
aF0.000138
aF0.944
aF0.0447
aF0.153
aa(lp417
F0.0043
aF0.313
aF0.941
aF0.000141
aF0.162
aF0.231
aF0.379
aa(lp418
F0.0245
aF0.614
aF0.761
aF4.98e-05
aF0.14
aF0.0324
aF0.275
aa(lp419
F0.0128
aF0.373
aF0.939
aF0.000553
aF0.916
aF0.138
aF0.485
aa(lp420
F0.0619
aF0.422
aF0.899
aF1.5e-05
aF0.891
aF0.0785
aF0.334
aa(lp421
F0.0133
aF0.404
aF0.948
aF2.7e-06
aF0.931
aF0.0845
aF0.397
aa(lp422
F0.076
aF0.449
aF0.928
aI0
aF0.842
aF0.213
aF0.522
aa(lp423
F0.038
aF0.688
aF0.605
aF2.77e-05
aF0.961
aF0.0274
aF0.448
aa(lp424
F0.0307
aF0.594
aF0.816
aF0.000914
aF0.932
aF0.0401
aF0.573
aa(lp425
F0.0207
aF0.493
aF0.804
aF0.000375
aF0.189
aF0.0332
aF0.12
aa(lp426
F0.31
aF0.612
aF0.891
aF0.002
aF0.847
aF0.24
aF0.67
aa(lp427
F0.0494
aF0.285
aF0.925
aF1.56e-05
aF0.668
aF0.126
aF0.307
aa(lp428
F0.266
aF0.299
aF0.949
aF6.25e-05
aF0.705
aF0.528
aF0.183
aa(lp429
F0.0524
aF0.596
aF0.835
aF2.15e-06
aF0.625
aF0.037
aF0.467
aa(lp430
F0.0155
aF0.263
aF0.904
aF2.35e-05
aF0.814
aF0.266
aF0.487
aa(lp431
F0.179
aF0.563
aF0.889
aF2.88e-06
aF0.919
aF0.109
aF0.361
aa(lp432
F0.0359
aF0.138
aF0.99
aF0.000171
aF0.804
aF0.634
aF0.129
aassS'Buddy Guy'
p433
(dp434
VLiving Proof
p435
(lp436
(lp437
F0.332
aF0.515
aF0.73
aF2.48e-05
aF0.154
aF0.0356
aF0.565
aa(lp438
F0.361
aF0.299
aF0.675
aF0.000485
aF0.159
aF0.0414
aF0.564
aa(lp439
F0.157
aF0.608
aF0.727
aF0.1
aF0.0335
aF0.0429
aF0.857
aa(lp440
F0.672
aF0.347
aF0.466
aF0.085
aF0.122
aF0.0309
aF0.333
aa(lp441
F0.0675
aF0.451
aF0.785
aF0.000402
aF0.367
aF0.033
aF0.645
aa(lp442
F0.182
aF0.431
aF0.768
aF0.0148
aF0.154
aF0.0409
aF0.539
aa(lp443
F0.311
aF0.592
aF0.702
aF0.0497
aF0.432
aF0.0304
aF0.772
aa(lp444
F0.0656
aF0.472
aF0.911
aF0.00462
aF0.0992
aF0.0597
aF0.471
aa(lp445
F0.32
aF0.516
aF0.624
aF0.00496
aF0.329
aF0.0275
aF0.587
aa(lp446
F0.119
aF0.279
aF0.874
aF0.0345
aF0.257
aF0.0505
aF0.704
aa(lp447
F0.163
aF0.311
aF0.752
aF0.00583
aF0.0698
aF0.0442
aF0.666
aa(lp448
F0.23
aF0.435
aF0.906
aF0.158
aF0.356
aF0.0607
aF0.762
aasVLive At Legends
p449
(lp450
(lp451
F0.0104
aF0.466
aF0.794
aF3.92e-05
aF0.923
aF0.0636
aF0.749
aa(lp452
F0.232
aF0.347
aF0.909
aF0.00588
aF0.627
aF0.198
aF0.323
aa(lp453
F0.0993
aF0.396
aF0.673
aF0.000751
aF0.97
aF0.0756
aF0.301
aa(lp454
F0.127
aF0.429
aF0.682
aF0.0063
aF0.919
aF0.15
aF0.269
aa(lp455
F0.805
aF0.442
aF0.258
aF6.58e-06
aF0.709
aF0.0495
aF0.3
aa(lp456
F0.146
aF0.302
aF0.836
aF0.016
aF0.846
aF0.176
aF0.344
aa(lp457
F0.711
aF0.502
aF0.341
aF0.00362
aF0.786
aF0.104
aF0.425
aa(lp458
F0.332
aF0.382
aF0.939
aF0.295
aF0.302
aF0.151
aF0.314
aa(lp459
F0.0793
aF0.276
aF0.658
aF0.0138
aF0.119
aF0.0339
aF0.475
aa(lp460
F0.0917
aF0.406
aF0.91
aF0.0552
aF0.312
aF0.0705
aF0.551
aa(lp461
F0.506
aF0.359
aF0.63
aF0.0566
aF0.23
aF0.0293
aF0.243
aasVBuddy And The Juniors
p462
(lp463
(lp464
F0.766
aF0.523
aF0.12
aF1.54e-05
aF0.366
aF0.187
aF0.333
aa(lp465
F0.718
aF0.622
aF0.278
aF0.211
aF0.149
aF0.0808
aF0.4
aa(lp466
F0.852
aF0.444
aF0.511
aF0.121
aF0.0712
aF0.0539
aF0.499
aa(lp467
F0.852
aF0.485
aF0.379
aF0.000254
aF0.12
aF0.0454
aF0.571
aa(lp468
F0.964
aF0.434
aF0.314
aF0.019
aF0.139
aF0.049
aF0.309
aa(lp469
F0.875
aF0.55
aF0.167
aF0.00104
aF0.321
aF0.233
aF0.343
aa(lp470
F0.933
aF0.707
aF0.441
aF0.00399
aF0.149
aF0.0478
aF0.635
aasVCan't Quit The Blues
p471
(lp472
(lp473
F0.74
aF0.368
aF0.406
aI0
aF0.262
aF0.0441
aF0.37
aa(lp474
F0.784
aF0.54
aF0.54
aF0.144
aF0.115
aF0.0374
aF0.372
aa(lp475
F0.511
aF0.397
aF0.686
aF0.000139
aF0.299
aF0.0487
aF0.872
aa(lp476
F0.417
aF0.663
aF0.57
aF0.0571
aF0.0587
aF0.0312
aF0.91
aa(lp477
F0.537
aF0.442
aF0.678
aF1.88e-05
aF0.053
aF0.0442
aF0.706
aa(lp478
F0.644
aF0.39
aF0.441
aF0.0256
aF0.0535
aF0.151
aF0.428
aa(lp479
F0.608
aF0.671
aF0.625
aF0.388
aF0.131
aF0.136
aF0.804
aa(lp480
F0.777
aF0.447
aF0.529
aF0.000349
aF0.255
aF0.144
aF0.542
aa(lp481
F0.311
aF0.357
aF0.562
aF1.07e-05
aF0.056
aF0.0412
aF0.479
aa(lp482
F0.446
aF0.725
aF0.412
aF0.000212
aF0.0961
aF0.275
aF0.628
aa(lp483
F0.598
aNaF0.169
aF0.274
aF0.299
aNaNaa(lp484
F0.735
aF0.576
aF0.597
aF0.0219
aF0.104
aF0.0398
aF0.773
aa(lp485
F0.744
aF0.618
aF0.184
aF0.00894
aF0.138
aF0.0422
aF0.32
aa(lp486
F0.833
aF0.74
aF0.701
aF0.443
aF0.0665
aF0.0501
aF0.842
aa(lp487
F0.241
aF0.571
aF0.557
aF0.0656
aF0.985
aF0.0832
aF0.637
aa(lp488
F0.0152
aF0.527
aF0.479
aF0.0219
aF0.124
aF0.091
aF0.566
aa(lp489
F0.0304
aF0.574
aF0.828
aI0
aF0.138
aF0.0998
aF0.694
aa(lp490
F0.0358
aF0.476
aF0.455
aF0.126
aF0.326
aF0.0775
aF0.242
aa(lp491
F0.0881
aF0.406
aF0.786
aF0.251
aF0.273
aF0.0738
aF0.583
aa(lp492
F0.0183
aF0.55
aF0.865
aF0.00288
aF0.304
aF0.0418
aF0.784
aa(lp493
F0.0697
aF0.645
aF0.561
aF0.00185
aF0.111
aF0.0883
aF0.349
aa(lp494
F0.0911
aF0.437
aF0.814
aF0.0209
aF0.125
aF0.116
aF0.73
aa(lp495
F0.184
aF0.304
aF0.681
aF0.00478
aF0.705
aF0.0431
aF0.728
aa(lp496
F0.219
aF0.426
aF0.465
aF0.213
aF0.126
aF0.0328
aF0.284
aa(lp497
F0.281
aF0.55
aF0.443
aF0.000669
aF0.114
aF0.0289
aF0.267
aa(lp498
F0.311
aF0.369
aF0.604
aF0.00251
aF0.103
aF0.031
aF0.317
aa(lp499
F0.00371
aF0.298
aF0.707
aF1.94e-05
aF0.257
aF0.0372
aF0.562
aa(lp500
F0.133
aF0.42
aF0.86
aF3.52e-05
aF0.682
aF0.218
aF0.681
aa(lp501
F0.387
aF0.453
aF0.41
aF0.00394
aF0.919
aF0.0812
aF0.389
aa(lp502
F0.13
aF0.617
aF0.737
aF0.00351
aF0.353
aF0.0732
aF0.868
aa(lp503
F0.103
aF0.64
aF0.895
aF0.00721
aF0.141
aF0.0321
aF0.787
aa(lp504
F0.0667
aF0.431
aF0.955
aF0.778
aF0.315
aF0.195
aF0.592
aa(lp505
F0.132
aF0.653
aF0.771
aF0.000244
aF0.0973
aF0.066
aF0.66
aa(lp506
F0.000117
aF0.402
aF0.484
aF0.881
aF0.074
aF0.0281
aF0.0522
aa(lp507
F0.899
aF0.67
aF0.0677
aF0.22
aF0.124
aF0.0517
aF0.185
aa(lp508
F0.0915
aF0.492
aF0.811
aF0.0644
aF0.099
aF0.037
aF0.661
aa(lp509
F0.0186
aF0.453
aF0.774
aF0.302
aF0.0935
aF0.0356
aF0.489
aa(lp510
F0.55
aF0.763
aF0.513
aF0.0103
aF0.174
aF0.0391
aF0.555
aa(lp511
F0.37
aF0.757
aF0.474
aF0.0442
aF0.0859
aF0.0805
aF0.605
aa(lp512
F0.735
aF0.695
aF0.112
aF0.00579
aF0.0833
aF0.0936
aF0.374
aa(lp513
F0.471
aF0.637
aF0.63
aF0.0549
aF0.982
aF0.0559
aF0.666
aa(lp514
F0.336
aF0.178
aF0.908
aF0.00296
aF0.941
aF0.101
aF0.531
aa(lp515
F0.245
aF0.722
aF0.792
aF0.0118
aF0.0883
aF0.109
aF0.777
aa(lp516
F0.573
aF0.53
aF0.669
aF6.06e-05
aF0.057
aF0.0273
aF0.356
aa(lp517
F0.367
aF0.747
aF0.568
aF0.000768
aF0.14
aF0.0345
aF0.828
aa(lp518
F0.361
aF0.417
aF0.644
aF0.00893
aF0.163
aF0.0369
aF0.489
aa(lp519
F0.159
aF0.698
aF0.589
aF0.000818
aF0.128
aF0.1
aF0.71
aasVSkin Deep Deluxe Version
p520
(lp521
(lp522
F0.0258
aF0.606
aF0.807
aF0.143
aF0.285
aF0.0319
aF0.917
aa(lp523
F0.158
aF0.568
aF0.823
aF1.12e-06
aF0.311
aF0.0422
aF0.756
aa(lp524
F0.15
aF0.296
aF0.743
aF0.0274
aF0.181
aF0.0463
aF0.537
aa(lp525
F0.197
aF0.493
aF0.927
aF4.76e-06
aF0.355
aF0.151
aF0.693
aa(lp526
F0.0455
aF0.519
aF0.693
aF0.0752
aF0.123
aF0.0309
aF0.625
aa(lp527
F0.209
aF0.3
aF0.738
aF0.0719
aF0.119
aF0.0455
aF0.378
aa(lp528
F0.245
aF0.633
aF0.726
aF0.00213
aF0.118
aF0.035
aF0.761
aa(lp529
F0.0455
aF0.486
aF0.921
aF0.474
aF0.389
aF0.0836
aF0.709
aa(lp530
F0.517
aF0.572
aF0.567
aF2.46e-05
aF0.158
aF0.0341
aF0.485
aa(lp531
F0.346
aF0.406
aF0.892
aF0.00547
aF0.703
aF0.0747
aF0.654
aa(lp532
F0.0059
aF0.554
aF0.72
aF0.15
aF0.368
aF0.0286
aF0.533
aa(lp533
F0.0841
aF0.364
aF0.722
aF0.00281
aF0.16
aF0.0392
aF0.646
aa(lp534
F0.593
aF0.478
aF0.903
aF0.0955
aF0.27
aF0.0557
aF0.746
aa(lp535
F0.358
aF0.628
aF0.646
aF3.67e-05
aF0.66
aF0.0361
aF0.605
aa(lp536
F0.378
aF0.779
aF0.58
aF0.00801
aF0.204
aF0.0707
aF0.477
aasVSkin Deep
p537
(lp538
(lp539
F0.0272
aF0.607
aF0.808
aF0.116
aF0.353
aF0.0318
aF0.901
aa(lp540
F0.154
aF0.338
aF0.815
aI0
aF0.305
aF0.0807
aF0.772
aa(lp541
F0.135
aF0.294
aF0.742
aF0.0197
aF0.253
aF0.0468
aF0.527
aa(lp542
F0.162
aF0.48
aF0.931
aF1.52e-05
aF0.355
aF0.152
aF0.663
aa(lp543
F0.0462
aF0.518
aF0.689
aF0.0594
aF0.118
aF0.0309
aF0.635
aa(lp544
F0.2
aF0.285
aF0.744
aF0.0653
aF0.116
aF0.0468
aF0.374
aa(lp545
F0.223
aF0.638
aF0.73
aF0.00273
aF0.102
aF0.0359
aF0.758
aa(lp546
F0.0507
aF0.491
aF0.917
aF0.365
aF0.399
aF0.0937
aF0.697
aa(lp547
F0.537
aF0.576
aF0.566
aF3.07e-05
aF0.152
aF0.0331
aF0.492
aa(lp548
F0.329
aF0.411
aF0.891
aF0.00386
aF0.749
aF0.0672
aF0.627
aa(lp549
F0.00707
aF0.554
aF0.714
aF0.154
aF0.359
aF0.0286
aF0.546
aa(lp550
F0.0924
aF0.363
aF0.72
aF0.00161
aF0.131
aF0.0383
aF0.665
aasVBorn To Play Guitar
p551
(lp552
(lp553
F0.768
aF0.479
aF0.423
aF0.000305
aF0.294
aF0.0694
aF0.406
aa(lp554
F0.388
aF0.436
aF0.891
aF0.116
aF0.171
aF0.0608
aF0.641
aa(lp555
F0.596
aF0.379
aF0.432
aF0.331
aF0.174
aF0.0364
aF0.412
aa(lp556
F0.66
aF0.48
aF0.665
aF0.0604
aF0.429
aF0.0418
aF0.431
aa(lp557
F0.349
aF0.683
aF0.767
aF0.0423
aF0.103
aF0.0268
aF0.654
aa(lp558
F0.487
aF0.473
aF0.814
aF0.141
aF0.409
aF0.0574
aF0.756
aa(lp559
F0.64
aF0.377
aF0.56
aF0.377
aF0.103
aF0.0463
aF0.478
aa(lp560
F0.755
aF0.632
aF0.542
aF1.48e-06
aF0.383
aF0.108
aF0.741
aa(lp561
F0.342
aF0.61
aF0.746
aF0.0852
aF0.378
aF0.0312
aF0.545
aa(lp562
F0.626
aF0.567
aF0.648
aF0.0639
aF0.0991
aF0.0425
aF0.417
aa(lp563
F0.357
aF0.562
aF0.762
aF0.837
aF0.18
aF0.0367
aF0.429
aa(lp564
F0.271
aF0.475
aF0.83
aF0.473
aF0.0921
aF0.0408
aF0.8
aa(lp565
F0.729
aF0.406
aF0.55
aF0.00647
aF0.101
aF0.0286
aF0.241
aa(lp566
F0.721
aF0.5
aF0.372
aF0.0539
aF0.151
aF0.0435
aF0.144
aasVRhythm & Blues
p567
(lp568
(lp569
F0.233
aF0.586
aF0.897
aF0.0123
aF0.0523
aF0.0592
aF0.771
aa(lp570
F0.0624
aF0.543
aF0.93
aF0.0545
aF0.0937
aF0.0658
aF0.601
aa(lp571
F0.187
aF0.37
aF0.808
aF0.187
aF0.431
aF0.0458
aF0.661
aa(lp572
F0.0319
aF0.428
aF0.883
aF0.00103
aF0.351
aF0.119
aF0.783
aa(lp573
F0.159
aF0.449
aF0.9
aF0.00495
aF0.122
aF0.0802
aF0.721
aa(lp574
F0.525
aF0.523
aF0.695
aF9.33e-06
aF0.168
aF0.0333
aF0.479
aa(lp575
F0.0768
aF0.56
aF0.743
aF0.00389
aF0.128
aF0.0351
aF0.729
aa(lp576
F0.0184
aF0.244
aF0.824
aF0.000812
aF0.713
aF0.0517
aF0.543
aa(lp577
F0.384
aF0.522
aF0.733
aF0.0915
aF0.0664
aF0.0284
aF0.599
aa(lp578
F0.288
aF0.487
aF0.685
aF0.336
aF0.286
aF0.0358
aF0.655
aa(lp579
F0.0977
aF0.507
aF0.778
aF0.657
aF0.162
aF0.0345
aF0.957
aa(lp580
F0.0162
aF0.512
aF0.914
aF0.000999
aF0.148
aF0.0525
aF0.764
aa(lp581
F0.355
aF0.457
aF0.878
aF0.000316
aF0.298
aF0.0664
aF0.543
aa(lp582
F0.42
aF0.247
aF0.912
aF0.00215
aF0.331
aF0.091
aF0.533
aa(lp583
F0.284
aF0.331
aF0.665
aF0.0546
aF0.289
aF0.0502
aF0.586
aa(lp584
F0.586
aF0.496
aF0.881
aF0.00197
aF0.0441
aF0.0569
aF0.475
aa(lp585
F0.542
aF0.536
aF0.617
aF0.0207
aF0.0991
aF0.0351
aF0.472
aa(lp586
F0.248
aF0.562
aF0.668
aF0.00317
aF0.411
aF0.0768
aF0.602
aa(lp587
F0.0882
aF0.371
aF0.941
aF0.0373
aF0.0658
aF0.0779
aF0.774
aa(lp588
F0.417
aF0.397
aF0.852
aF0.239
aF0.366
aF0.0769
aF0.694
aa(lp589
F0.64
aF0.445
aF0.91
aF0.00953
aF0.326
aF0.0575
aF0.799
aasVVanguard Visionaries
p590
(lp591
(lp592
F0.716
aF0.559
aF0.613
aF0.00315
aF0.0906
aF0.0348
aF0.806
aa(lp593
F0.302
aF0.316
aF0.771
aF0.0116
aF0.697
aF0.109
aF0.457
aa(lp594
F0.375
aF0.494
aF0.888
aI0
aF0.974
aF0.124
aF0.748
aa(lp595
F0.143
aF0.449
aF0.468
aF7.49e-05
aF0.232
aF0.0843
aF0.675
aa(lp596
F0.767
aF0.759
aF0.577
aF0.000852
aF0.0858
aF0.0396
aF0.744
aa(lp597
F0.0982
aF0.437
aF0.799
aF4.8e-06
aF0.969
aF0.0972
aF0.579
aa(lp598
F0.0767
aF0.646
aF0.488
aF0.0203
aF0.109
aF0.0628
aF0.469
aa(lp599
F0.516
aF0.454
aF0.445
aF0.0096
aF0.165
aF0.0505
aF0.65
aa(lp600
F0.565
aF0.612
aF0.209
aF3.32e-05
aF0.154
aF0.0415
aF0.368
aa(lp601
F0.164
aF0.532
aF0.633
aF0.856
aF0.096
aF0.0323
aF0.766
aasVBring 'Em In
p602
(lp603
(lp604
F0.47
aF0.415
aF0.555
aF0.0127
aF0.336
aF0.0338
aF0.389
aa(lp605
F0.43
aF0.587
aF0.817
aF0.0142
aF0.249
aF0.0306
aF0.712
aa(lp606
F0.45
aF0.769
aF0.586
aF0.0243
aF0.11
aF0.0412
aF0.873
aa(lp607
F0.54
aF0.503
aF0.706
aF4.13e-05
aF0.0533
aF0.028
aF0.337
aa(lp608
F0.137
aF0.583
aF0.9
aF0.435
aF0.548
aF0.0339
aF0.855
aa(lp609
F0.19
aF0.639
aF0.712
aF0.000689
aF0.249
aF0.0383
aF0.903
aa(lp610
F0.537
aF0.666
aF0.421
aF0.0134
aF0.112
aF0.0421
aF0.414
aa(lp611
F0.762
aF0.437
aF0.436
aF2.87e-05
aF0.0759
aF0.0308
aF0.282
aa(lp612
F0.0979
aF0.637
aF0.684
aF0.0984
aF0.309
aF0.0558
aF0.779
aa(lp613
F0.164
aF0.711
aF0.605
aF0.00123
aF0.0905
aF0.0253
aF0.524
aa(lp614
F0.396
aF0.389
aF0.69
aF0.0102
aF0.133
aF0.0401
aF0.489
aa(lp615
F0.148
aF0.717
aF0.584
aF0.000977
aF0.161
aF0.0924
aF0.737
aa(lp616
F0.369
aF0.564
aF0.6
aF0.665
aF0.0793
aF0.0366
aF0.815
aasVThis Is
p617
(lp618
(lp619
F0.297
aF0.514
aF0.52
aF0.00039
aF0.971
aF0.31
aF0.627
aa(lp620
F0.327
aF0.303
aF0.388
aF0.0144
aF0.704
aF0.0877
aF0.445
aa(lp621
F0.235
aF0.503
aF0.288
aF0.000495
aF0.976
aF0.259
aF0.489
aa(lp622
F0.16
aF0.406
aF0.597
aF5.3e-05
aF0.985
aF0.148
aF0.589
aa(lp623
F0.598
aF0.396
aF0.425
aF0.0451
aF0.707
aF0.104
aF0.523
aa(lp624
F0.6
aF0.479
aF0.787
aF0.00034
aF0.979
aF0.252
aF0.777
aa(lp625
F0.562
aF0.437
aF0.558
aF0.00203
aF0.958
aF0.0764
aF0.55
aa(lp626
F0.314
aF0.362
aF0.723
aF0.205
aF0.979
aF0.105
aF0.545
aassS'Derek & The Dominos'
p627
(dp628
VLayla And Other Assorted Love Songs (Super Deluxe Edition)
p629
(lp630
(lp631
F0.353
aF0.497
aF0.492
aF0.00163
aF0.163
aF0.0302
aF0.75
aa(lp632
F0.581
aF0.41
aF0.694
aF0.0339
aF0.162
aF0.0375
aF0.603
aa(lp633
F0.391
aF0.508
aF0.902
aF0.223
aF0.116
aF0.0689
aF0.731
aa(lp634
F0.906
aF0.486
aF0.517
aF0.211
aF0.762
aF0.0282
aF0.394
aa(lp635
F0.377
aF0.676
aF0.307
aF0.24
aF0.212
aF0.0339
aF0.614
aa(lp636
F0.171
aF0.193
aF0.876
aF0.00264
aF0.249
aF0.0684
aF0.724
aa(lp637
F0.394
aF0.293
aF0.634
aF0.756
aF0.503
aF0.0376
aF0.618
aa(lp638
F0.481
aF0.445
aF0.895
aF0.0299
aF0.102
aF0.0679
aF0.617
aa(lp639
F0.12
aF0.346
aF0.959
aF8.64e-05
aF0.345
aF0.197
aF0.349
aa(lp640
F0.627
aF0.303
aF0.668
aF0.0556
aF0.394
aF0.0633
aF0.642
aa(lp641
F0.511
aF0.299
aF0.833
aF0.025
aF0.376
aF0.0436
aF0.598
aa(lp642
F0.733
aF0.54
aF0.615
aF4.11e-06
aF0.399
aF0.0323
aF0.763
aa(lp643
F0.549
aF0.399
aF0.916
aF0.292
aF0.309
aF0.0677
aF0.501
aa(lp644
F0.93
aF0.633
aF0.108
aF0.0331
aF0.1
aF0.0364
aF0.234
aa(lp645
F0.76
aF0.563
aF0.446
aF0.041
aF0.0775
aF0.0811
aF0.882
aa(lp646
F0.0138
aF0.492
aF0.846
aF0.00353
aF0.168
aF0.0283
aF0.765
aa(lp647
F0.0834
aF0.364
aF0.967
aI0
aF0.503
aF0.0672
aF0.714
aa(lp648
F0.744
aF0.574
aF0.865
aF9.3e-05
aF0.832
aF0.0666
aF0.892
aa(lp649
F0.476
aF0.524
aF0.96
aF0.15
aF0.967
aF0.0475
aF0.912
aa(lp650
F0.759
aF0.294
aF0.951
aF0.000124
aF0.965
aF0.592
aF0.804
aa(lp651
F0.259
aF0.487
aF0.943
aF0.00152
aF0.957
aF0.0547
aF0.887
aa(lp652
F0.3
aF0.387
aF0.57
aF0.695
aF0.083
aF0.0302
aF0.597
aa(lp653
F0.161
aF0.47
aF0.834
aF0.389
aF0.184
aF0.0442
aF0.85
aa(lp654
F0.384
aF0.478
aF0.774
aF0.617
aF0.392
aF0.0359
aF0.722
aa(lp655
F0.418
aF0.666
aF0.647
aF0.0128
aF0.37
aF0.0236
aF0.737
aa(lp656
F0.012
aF0.575
aF0.696
aF0.857
aF0.167
aF0.0404
aF0.815
aa(lp657
F0.0268
aF0.45
aF0.907
aF0.409
aF0.254
aF0.0448
aF0.765
aa(lp658
F0.166
aF0.258
aF0.89
aF0.0809
aF0.671
aF0.108
aF0.606
aa(lp659
F0.0359
aF0.478
aF0.945
aF0.19
aF0.951
aF0.0432
aF0.889
aa(lp660
F0.0125
aF0.36
aF0.98
aF0.248
aF0.771
aF0.209
aF0.259
aa(lp661
F0.649
aF0.419
aF0.686
aF0.000386
aF0.713
aF0.0442
aF0.503
aa(lp662
F0.191
aF0.367
aF0.613
aF0.00101
aF0.876
aF0.0293
aF0.79
aa(lp663
F0.779
aF0.419
aF0.481
aF4.42e-05
aF0.957
aF0.0353
aF0.357
aa(lp664
F0.408
aF0.508
aF0.818
aF0.00639
aF0.838
aF0.0315
aF0.869
aa(lp665
F0.0356
aF0.445
aF0.899
aF0.00121
aF0.993
aF0.0408
aF0.524
aa(lp666
F0.225
aF0.494
aF0.819
aF0.0454
aF0.951
aF0.0361
aF0.815
aa(lp667
F0.35
aF0.357
aF0.894
aF0.0551
aF0.718
aF0.0387
aF0.828
aa(lp668
F0.555
aF0.447
aF0.45
aF0.003
aF0.975
aF0.0358
aF0.463
aa(lp669
F0.661
aF0.377
aF0.752
aF6.1e-05
aF0.708
aF0.043
aF0.495
aa(lp670
F0.0791
aF0.325
aF0.788
aF0.0205
aF0.929
aF0.0364
aF0.874
aasVDylan, Cash, and the Nashville Cats: A New Music City
p671
(lp672
(lp673
F0.235
aF0.564
aF0.721
aI0
aF0.109
aF0.0302
aF0.799
aa(lp674
F0.46
aF0.678
aF0.929
aF0.0217
aF0.575
aF0.0863
aF0.786
aa(lp675
F0.446
aF0.628
aF0.438
aI0
aF0.137
aF0.0339
aF0.5
aa(lp676
F0.491
aF0.719
aF0.492
aI0
aF0.204
aF0.0495
aF0.933
aa(lp677
F0.00119
aF0.499
aF0.575
aF0.0123
aF0.206
aF0.0298
aF0.564
aa(lp678
F0.417
aF0.502
aF0.321
aF7.42e-05
aF0.062
aF0.0285
aF0.407
aa(lp679
F0.0901
aF0.509
aF0.417
aF0.00248
aF0.664
aF0.04
aF0.709
aa(lp680
F0.55
aF0.616
aF0.445
aI0
aF0.0637
aF0.0304
aF0.576
aa(lp681
F0.731
aF0.329
aF0.449
aF1.63e-06
aF0.0763
aF0.037
aF0.466
aa(lp682
F0.212
aF0.44
aF0.471
aI0
aF0.0685
aF0.0281
aF0.718
aa(lp683
F0.328
aF0.442
aF0.491
aF0.000278
aF0.331
aF0.0309
aF0.825
aa(lp684
F0.732
aF0.304
aF0.259
aF0.000246
aF0.233
aF0.0287
aF0.145
aa(lp685
F0.903
aF0.701
aF0.267
aF1.11e-06
aF0.206
aF0.0338
aF0.516
aa(lp686
F0.838
aF0.402
aF0.122
aF0.00293
aF0.233
aF0.0314
aF0.175
aa(lp687
F0.291
aF0.44
aF0.415
aF0.00932
aF0.235
aF0.0286
aF0.526
aa(lp688
F0.137
aF0.555
aF0.526
aI0
aF0.321
aF0.0318
aF0.965
aa(lp689
F0.708
aF0.445
aF0.542
aF0.000293
aF0.16
aF0.0595
aF0.606
aa(lp690
F0.0333
aF0.651
aF0.651
aF0.864
aF0.07
aF0.096
aF0.649
aa(lp691
F0.363
aF0.503
aF0.395
aI0
aF0.357
aF0.224
aF0.734
aa(lp692
F0.88
aF0.606
aF0.321
aF0.000495
aF0.111
aF0.0335
aF0.305
aa(lp693
F0.545
aF0.518
aF0.662
aF1.03e-06
aF0.158
aF0.0347
aF0.961
aa(lp694
F0.622
aF0.561
aF0.394
aF0.00052
aF0.107
aF0.0306
aF0.438
aa(lp695
F0.715
aF0.584
aF0.283
aI0
aF0.0926
aF0.0283
aF0.464
aa(lp696
F0.000389
aF0.319
aF0.662
aF0.00724
aF0.328
aF0.0298
aF0.658
aa(lp697
F0.452
aF0.577
aF0.386
aI0
aF0.112
aF0.0343
aF0.437
aa(lp698
F0.0905
aF0.473
aF0.71
aI0
aF0.189
aF0.0382
aF0.672
aa(lp699
F0.883
aF0.411
aF0.261
aF0.367
aF0.11
aF0.0306
aF0.15
aa(lp700
F0.222
aF0.543
aF0.471
aF0.0327
aF0.101
aF0.0297
aF0.825
aa(lp701
F0.715
aF0.284
aF0.24
aF0.00952
aF0.097
aF0.0311
aF0.322
aa(lp702
F0.717
aF0.836
aF0.14
aF0.186
aF0.0822
aF0.0446
aF0.45
aa(lp703
F0.751
aF0.522
aF0.358
aF0.00902
aF0.0952
aF0.0232
aF0.345
aa(lp704
F0.634
aF0.406
aF0.499
aI0
aF0.343
aF0.0272
aF0.437
aa(lp705
F0.494
aF0.477
aF0.217
aF4.03e-05
aF0.137
aF0.0268
aF0.206
aa(lp706
F0.657
aF0.644
aF0.485
aF8.35e-06
aF0.0822
aF0.0288
aF0.809
aa(lp707
F0.0719
aF0.501
aF0.514
aI0
aF0.123
aF0.0294
aF0.687
aa(lp708
F0.569
aF0.274
aF0.901
aF0.000937
aF0.853
aF0.0809
aF0.906
aasVLayla And Other Assorted Love Songs (Deluxe Edition)
p709
(lp710
(lp711
F0.353
aF0.497
aF0.492
aF0.00163
aF0.163
aF0.0302
aF0.75
aa(lp712
F0.581
aF0.41
aF0.694
aF0.0339
aF0.162
aF0.0375
aF0.603
aa(lp713
F0.391
aF0.508
aF0.902
aF0.223
aF0.116
aF0.0689
aF0.731
aa(lp714
F0.906
aF0.486
aF0.517
aF0.211
aF0.762
aF0.0282
aF0.394
aa(lp715
F0.377
aF0.676
aF0.307
aF0.24
aF0.212
aF0.0339
aF0.614
aa(lp716
F0.171
aF0.193
aF0.876
aF0.00264
aF0.249
aF0.0684
aF0.724
aa(lp717
F0.394
aF0.293
aF0.634
aF0.756
aF0.503
aF0.0376
aF0.618
aa(lp718
F0.481
aF0.445
aF0.895
aF0.0299
aF0.102
aF0.0679
aF0.617
aa(lp719
F0.12
aF0.346
aF0.959
aF8.64e-05
aF0.345
aF0.197
aF0.349
aa(lp720
F0.627
aF0.303
aF0.668
aF0.0556
aF0.394
aF0.0633
aF0.642
aa(lp721
F0.511
aF0.299
aF0.833
aF0.025
aF0.376
aF0.0436
aF0.598
aa(lp722
F0.733
aF0.54
aF0.615
aF4.11e-06
aF0.399
aF0.0323
aF0.763
aa(lp723
F0.549
aF0.399
aF0.916
aF0.292
aF0.309
aF0.0677
aF0.501
aa(lp724
F0.93
aF0.633
aF0.108
aF0.0331
aF0.1
aF0.0364
aF0.234
aa(lp725
F0.76
aF0.563
aF0.446
aF0.041
aF0.0775
aF0.0811
aF0.882
aa(lp726
F0.0138
aF0.492
aF0.846
aF0.00353
aF0.168
aF0.0283
aF0.765
aa(lp727
F0.0834
aF0.364
aF0.967
aI0
aF0.503
aF0.0672
aF0.714
aa(lp728
F0.744
aF0.574
aF0.865
aF9.3e-05
aF0.832
aF0.0666
aF0.892
aa(lp729
F0.476
aF0.524
aF0.96
aF0.15
aF0.967
aF0.0475
aF0.912
aa(lp730
F0.759
aF0.294
aF0.951
aF0.000124
aF0.965
aF0.592
aF0.804
aa(lp731
F0.259
aF0.487
aF0.943
aF0.00152
aF0.957
aF0.0547
aF0.887
aa(lp732
F0.3
aF0.387
aF0.57
aF0.695
aF0.083
aF0.0302
aF0.597
aa(lp733
F0.161
aF0.47
aF0.834
aF0.389
aF0.184
aF0.0442
aF0.85
aa(lp734
F0.384
aF0.478
aF0.774
aF0.617
aF0.392
aF0.0359
aF0.722
aa(lp735
F0.418
aF0.666
aF0.647
aF0.0128
aF0.37
aF0.0236
aF0.737
aa(lp736
F0.012
aF0.575
aF0.696
aF0.857
aF0.167
aF0.0404
aF0.815
aa(lp737
F0.0268
aF0.45
aF0.907
aF0.409
aF0.254
aF0.0448
aF0.765
aasVDerek & The Dominos In Concert (Live)
p738
(lp739
(lp740
F0.231
aF0.332
aF0.769
aF0.0106
aF0.268
aF0.0439
aF0.579
aa(lp741
F0.129
aF0.471
aF0.887
aF0.37
aF0.897
aF0.0348
aF0.812
aa(lp742
F0.025
aF0.323
aF0.928
aF0.449
aF0.706
aF0.0889
aF0.315
aa(lp743
F0.796
aF0.403
aF0.557
aF0.00192
aF0.363
aF0.0352
aF0.414
aa(lp744
F0.58
aF0.503
aF0.678
aF0.0174
aF0.895
aF0.0282
aF0.852
aa(lp745
F0.0603
aF0.463
aF0.744
aF0.00184
aF0.981
aF0.031
aF0.501
aa(lp746
F0.412
aF0.48
aF0.671
aF0.143
aF0.512
aF0.0318
aF0.856
aa(lp747
F0.543
aF0.352
aF0.807
aF0.0454
aF0.632
aF0.0322
aF0.857
aa(lp748
F0.477
aF0.414
aF0.367
aF0.000198
aF0.791
aF0.0334
aF0.36
aasVLive At The Fillmore
p749
(lp750
(lp751
F0.226
aF0.49
aF0.787
aF0.153
aF0.699
aF0.0318
aF0.886
aa(lp752
F0.017
aF0.347
aF0.74
aF0.00906
aF0.651
aF0.0448
aF0.76
aa(lp753
F0.17
aF0.512
aF0.451
aF0.000339
aF0.734
aF0.0273
aF0.8
aa(lp754
F0.48
aF0.43
aF0.795
aF0.00443
aF0.468
aF0.0361
aF0.873
aa(lp755
F0.535
aF0.458
aF0.399
aF0.000716
aF0.846
aF0.0523
aF0.534
aa(lp756
F0.135
aF0.489
aF0.699
aF0.00435
aF0.9
aF0.0318
aF0.545
aa(lp757
F0.013
aF0.442
aF0.649
aF0.00372
aF0.182
aF0.0272
aF0.79
aa(lp758
F0.749
aF0.466
aF0.375
aF3.02e-05
aF0.645
aF0.0395
aF0.37
aa(lp759
F0.261
aF0.5
aF0.676
aF0.000997
aF0.737
aF0.0312
aF0.9
aa(lp760
F0.735
aF0.417
aF0.432
aF8.28e-06
aF0.748
aF0.0442
aF0.408
aa(lp761
F0.607
aF0.402
aF0.549
aF3.15e-05
aF0.151
aF0.0446
aF0.506
aa(lp762
F0.00753
aF0.344
aF0.824
aF0.445
aF0.72
aF0.0579
aF0.672
aa(lp763
F0.0839
aF0.339
aF0.638
aF0.0216
aF0.908
aF0.0352
aF0.881
aasVLayla And Other Assorted Love Songs (40th Anniversary / 2010 Remastered)
p764
(lp765
(lp766
F0.389
aF0.5
aF0.486
aF0.0027
aF0.163
aF0.0296
aF0.735
aa(lp767
F0.601
aF0.413
aF0.693
aF0.0553
aF0.166
aF0.0351
aF0.635
aa(lp768
F0.415
aF0.501
aF0.902
aF0.214
aF0.108
aF0.0686
aF0.745
aa(lp769
F0.905
aF0.48
aF0.512
aF0.38
aF0.702
aF0.0274
aF0.404
aa(lp770
F0.404
aF0.675
aF0.313
aF0.256
aF0.212
aF0.0345
aF0.611
aa(lp771
F0.178
aF0.195
aF0.879
aF0.00245
aF0.264
aF0.0641
aF0.717
aa(lp772
F0.408
aF0.292
aF0.627
aF0.774
aF0.489
aF0.0381
aF0.629
aa(lp773
F0.455
aF0.445
aF0.894
aF0.032
aF0.109
aF0.0682
aF0.621
aa(lp774
F0.109
aF0.369
aF0.96
aF0.000143
aF0.329
aF0.211
aF0.325
aa(lp775
F0.648
aF0.303
aF0.663
aF0.0859
aF0.387
aF0.0662
aF0.658
aa(lp776
F0.502
aF0.282
aF0.836
aF0.0273
aF0.369
aF0.0452
aF0.626
aa(lp777
F0.72
aF0.533
aF0.603
aF1.3e-05
aF0.404
aF0.0338
aF0.76
aa(lp778
F0.584
aF0.394
aF0.918
aF0.332
aF0.309
aF0.0709
aF0.49
aa(lp779
F0.939
aF0.622
aF0.106
aF0.0321
aF0.1
aF0.0355
aF0.207
aasVThe Layla Sessions
p780
(lp781
(lp782
F0.421
aF0.532
aF0.533
aF0.74
aF0.195
aF0.0344
aF0.791
aa(lp783
F0.337
aF0.485
aF0.437
aF0.000202
aF0.102
aF0.028
aF0.7
aa(lp784
F0.294
aF0.481
aF0.777
aF0.0976
aF0.13
aF0.0431
aF0.801
aa(lp785
F0.877
aF0.498
aF0.342
aF0.0784
aF0.407
aF0.0287
aF0.402
aa(lp786
F0.58
aF0.645
aF0.225
aF0.275
aF0.14
aF0.0358
aF0.497
aa(lp787
F0.0518
aF0.229
aF0.763
aF0.0527
aF0.41
aF0.0453
aF0.772
aa(lp788
F0.542
aF0.33
aF0.402
aF0.498
aF0.387
aF0.0343
aF0.605
aa(lp789
F0.48
aF0.479
aF0.576
aF0.0014
aF0.0926
aF0.03
aF0.734
aa(lp790
F0.0294
aF0.364
aF0.804
aF0.000722
aF0.109
aF0.0972
aF0.437
aa(lp791
F0.648
aF0.32
aF0.43
aF0.177
aF0.331
aF0.0364
aF0.656
aa(lp792
F0.506
aF0.35
aF0.575
aF0.0562
aF0.294
aF0.034
aF0.693
aa(lp793
F0.603
aF0.535
aF0.407
aF2.44e-05
aF0.234
aF0.031
aF0.81
aa(lp794
F0.34
aF0.481
aF0.577
aF0.154
aF0.344
aF0.0339
aF0.731
aa(lp795
F0.788
aF0.605
aF0.103
aF0.00732
aF0.115
aF0.0352
aF0.282
aa(lp796
F0.254
aF0.48
aF0.496
aF0.713
aF0.365
aF0.0556
aF0.777
aa(lp797
F0.423
aF0.55
aF0.708
aF0.908
aF0.281
aF0.0335
aF0.922
aa(lp798
F0.158
aF0.545
aF0.697
aF0.838
aF0.284
aF0.0521
aF0.849
aa(lp799
F0.18
aF0.558
aF0.69
aF0.659
aF0.153
aF0.0417
aF0.729
aa(lp800
F0.468
aF0.518
aF0.515
aF0.625
aF0.101
aF0.0363
aF0.884
aa(lp801
F0.84
aF0.419
aF0.372
aF0.471
aF0.295
aF0.0643
aF0.637
aa(lp802
F0.806
aF0.39
aF0.29
aF0.307
aF0.251
aF0.0352
aF0.694
aa(lp803
F0.238
aF0.461
aF0.456
aF0.798
aF0.105
aF0.0331
aF0.868
aa(lp804
F0.7
aF0.412
aF0.4
aF0.898
aF0.177
aF0.0379
aF0.734
aa(lp805
F0.683
aF0.595
aF0.282
aF0.52
aF0.0789
aF0.0726
aF0.732
aa(lp806
F0.791
aF0.803
aF0.314
aF0.568
aF0.104
aF0.038
aF0.707
aa(lp807
F0.561
aF0.809
aF0.185
aF0.0348
aF0.0509
aF0.0784
aF0.783
aa(lp808
F0.908
aF0.524
aF0.13
aF0.11
aF0.102
aF0.0951
aF0.586
aa(lp809
F0.307
aF0.727
aF0.489
aF0.726
aF0.101
aF0.0282
aF0.864
aa(lp810
F0.803
aF0.546
aF0.352
aF0.0267
aF0.222
aF0.0302
aF0.664
aassS'Keane'
p811
(dp812
VHopes and Fears (Deluxe Edition)
p813
(lp814
(lp815
F0.0693
aF0.437
aF0.59
aF3.01e-06
aF0.0797
aF0.0255
aF0.344
aa(lp816
F0.00121
aF0.474
aF0.759
aF2.16e-05
aF0.135
aF0.0297
aF0.494
aa(lp817
F0.0487
aF0.518
aF0.341
aF0.00245
aF0.116
aF0.0252
aF0.247
aa(lp818
F0.0014
aF0.515
aF0.773
aF0.000287
aF0.105
aF0.03
aF0.451
aa(lp819
F0.000576
aF0.537
aF0.707
aF7.3e-05
aF0.308
aF0.0315
aF0.585
aa(lp820
F0.531
aF0.522
aF0.467
aF0.000314
aF0.064
aF0.0309
aF0.123
aa(lp821
F0.00805
aF0.511
aF0.644
aI0
aF0.14
aF0.0305
aF0.369
aa(lp822
F0.428
aF0.579
aF0.668
aF0.00463
aF0.0971
aF0.0257
aF0.109
aa(lp823
F0.00269
aF0.529
aF0.752
aF2.27e-05
aF0.151
aF0.031
aF0.327
aa(lp824
F0.185
aF0.493
aF0.601
aF0.000425
aF0.227
aF0.0295
aF0.469
aa(lp825
F0.022
aF0.58
aF0.673
aF0.48
aF0.0668
aF0.0288
aF0.618
aa(lp826
F0.539
aF0.427
aF0.384
aF0.000227
aF0.103
aF0.0361
aF0.0761
aa(lp827
F0.0309
aF0.436
aF0.594
aF0.00139
aF0.0981
aF0.0263
aF0.315
aa(lp828
F0.429
aF0.373
aF0.491
aF6.19e-05
aF0.201
aF0.0264
aF0.192
aa(lp829
F0.0198
aF0.461
aF0.826
aF0.000156
aF0.975
aF0.0317
aF0.482
aa(lp830
F0.159
aF0.509
aF0.467
aF0.0147
aF0.684
aF0.0241
aF0.223
aa(lp831
F0.00503
aF0.54
aF0.729
aF0.00139
aF0.891
aF0.0278
aF0.361
aa(lp832
F0.912
aF0.397
aF0.353
aF1.35e-05
aF0.709
aF0.0354
aF0.0509
aa(lp833
F0.889
aF0.395
aF0.263
aF0.000579
aF0.133
aF0.0301
aF0.131
aa(lp834
F0.00976
aF0.561
aF0.679
aF0.00118
aF0.0892
aF0.0254
aF0.344
aa(lp835
F0.00634
aF0.505
aF0.784
aF0.0316
aF0.139
aF0.0328
aF0.447
aa(lp836
F0.0796
aF0.683
aF0.451
aF0.0466
aF0.141
aF0.0803
aF0.928
aa(lp837
F0.0364
aF0.421
aF0.642
aF0.00673
aF0.356
aF0.0338
aF0.222
aa(lp838
F0.0182
aF0.475
aF0.66
aF0.038
aF0.25
aF0.0273
aF0.544
aa(lp839
F0.00941
aF0.324
aF0.388
aF0.0575
aF0.0971
aF0.03
aF0.0374
aa(lp840
F0.000503
aF0.432
aF0.772
aF0.00348
aF0.0942
aF0.0357
aF0.361
aa(lp841
F0.644
aF0.446
aF0.32
aF0.00159
aF0.102
aF0.0272
aF0.158
aa(lp842
F0.000183
aF0.237
aF0.772
aF3.82e-06
aF0.145
aF0.0388
aF0.366
aa(lp843
F0.0202
aF0.551
aF0.702
aF0.000127
aF0.0682
aF0.0294
aF0.285
aa(lp844
F0.974
aF0.745
aF0.127
aF6.35e-05
aF0.109
aF0.0645
aF0.448
aa(lp845
F0.0103
aF0.533
aF0.783
aF1.92e-06
aF0.0776
aF0.0298
aF0.478
aa(lp846
F0.484
aF0.458
aF0.245
aF1.33e-06
aF0.11
aF0.0282
aF0.0763
aa(lp847
F0.971
aF0.535
aF0.153
aF0.00497
aF0.11
aF0.0327
aF0.191
aa(lp848
F0.00989
aF0.17
aF0.668
aI0
aF0.97
aF0.0342
aF0.297
aa(lp849
F0.595
aF0.494
aF0.452
aF3.56e-06
aF0.962
aF0.0254
aF0.159
aa(lp850
F0.803
aF0.499
aF0.482
aF8.14e-06
aF0.769
aF0.0281
aF0.154
aa(lp851
F0.144
aF0.495
aF0.761
aF1.86e-06
aF0.885
aF0.0275
aF0.28
aasVStrangeland (Deluxe Version)
p852
(lp853
(lp854
F0.0726
aF0.494
aF0.773
aI0
aF0.237
aF0.0291
aF0.46
aa(lp855
F0.00231
aF0.502
aF0.798
aF6.62e-06
aF0.0925
aF0.026
aF0.372
aa(lp856
F0.0207
aF0.317
aF0.745
aI0
aF0.164
aF0.033
aF0.256
aa(lp857
F0.286
aF0.515
aF0.446
aF0.00352
aF0.106
aF0.0264
aF0.333
aa(lp858
F0.0177
aF0.538
aF0.725
aI0
aF0.161
aF0.0311
aF0.491
aa(lp859
F0.0035
aF0.292
aF0.835
aI0
aF0.0846
aF0.037
aF0.657
aa(lp860
F0.375
aF0.439
aF0.5
aI0
aF0.0764
aF0.0285
aF0.2
aa(lp861
F0.652
aF0.442
aF0.471
aF0.846
aF0.102
aF0.0311
aF0.42
aa(lp862
F0.107
aF0.565
aF0.717
aF3.7e-05
aF0.0971
aF0.0283
aF0.239
aa(lp863
F0.00759
aF0.347
aF0.863
aI0
aF0.125
aF0.0471
aF0.526
aa(lp864
F0.0769
aF0.492
aF0.757
aI0
aF0.0783
aF0.0405
aF0.225
aa(lp865
F0.973
aF0.525
aF0.201
aF0.0161
aF0.106
aF0.028
aF0.324
aa(lp866
F0.247
aF0.434
aF0.453
aF0.0201
aF0.0771
aF0.0293
aF0.245
aa(lp867
F0.125
aF0.66
aF0.729
aI0
aF0.351
aF0.0307
aF0.622
aa(lp868
F0.024
aF0.633
aF0.717
aF1.42e-06
aF0.478
aF0.033
aF0.387
aa(lp869
F0.803
aF0.229
aF0.511
aF0.484
aF0.321
aF0.0427
aF0.277
aasVStrangeland (Bonus Track Version)
p870
(lp871
(lp872
F0.0854
aF0.499
aF0.76
aI0
aF0.236
aF0.028
aF0.421
aa(lp873
F0.00236
aF0.51
aF0.815
aF6.49e-06
aF0.102
aF0.0268
aF0.326
aa(lp874
F0.0177
aF0.317
aF0.728
aI0
aF0.167
aF0.0319
aF0.273
aa(lp875
F0.291
aF0.497
aF0.445
aF0.000572
aF0.104
aF0.0259
aF0.348
aa(lp876
F0.0154
aF0.54
aF0.713
aI0
aF0.173
aF0.0309
aF0.556
aa(lp877
F0.00437
aF0.398
aF0.847
aI0
aF0.0958
aF0.0367
aF0.642
aa(lp878
F0.374
aF0.457
aF0.506
aI0
aF0.0782
aF0.0284
aF0.21
aa(lp879
F0.652
aF0.441
aF0.49
aF0.863
aF0.109
aF0.0319
aF0.395
aa(lp880
F0.0989
aF0.572
aF0.722
aF2.55e-05
aF0.0968
aF0.0288
aF0.193
aa(lp881
F0.00579
aF0.354
aF0.864
aI0
aF0.247
aF0.0501
aF0.549
aa(lp882
F0.0756
aF0.512
aF0.764
aI0
aF0.0779
aF0.0378
aF0.181
aa(lp883
F0.97
aF0.521
aF0.199
aF0.00468
aF0.109
aF0.0281
aF0.305
aa(lp884
F0.259
aF0.435
aF0.469
aF0.0112
aF0.0949
aF0.0296
aF0.271
aa(lp885
F0.159
aF0.657
aF0.711
aI0
aF0.346
aF0.0294
aF0.635
aa(lp886
F0.0218
aF0.631
aF0.715
aF1.43e-06
aF0.455
aF0.0323
aF0.373
aa(lp887
F0.784
aF0.478
aF0.521
aF0.564
aF0.325
aF0.0286
aF0.272
aa(lp888
F0.105
aF0.358
aF0.56
aF2.18e-05
aF0.0836
aF0.0272
aF0.431
aa(lp889
F0.367
aF0.481
aF0.643
aI0
aF0.716
aF0.0332
aF0.27
aa(lp890
F0.541
aF0.507
aF0.583
aI0
aF0.684
aF0.0346
aF0.395
aa(lp891
F0.835
aF0.332
aF0.542
aI0
aF0.989
aF0.307
aF0.297
aa(lp892
F0.927
aF0.414
aF0.387
aF4.76e-05
aF0.693
aF0.0477
aF0.25
aasVNight Train
p893
(lp894
(lp895
F0.131
aF0.403
aF0.34
aF0.947
aF0.146
aF0.0332
aF0.0295
aa(lp896
F0.000307
aF0.596
aF0.857
aF0.0201
aF0.308
aF0.0293
aF0.714
aa(lp897
F0.0525
aF0.608
aF0.783
aI0
aF0.231
aF0.041
aF0.762
aa(lp898
F0.00863
aF0.679
aF0.943
aF0.00622
aF0.114
aF0.042
aF0.899
aa(lp899
F0.0432
aF0.691
aF0.73
aF0.000606
aF0.505
aF0.0276
aF0.5
aa(lp900
F0.00122
aF0.644
aF0.651
aF2.9e-06
aF0.321
aF0.0265
aF0.429
aa(lp901
F0.00123
aF0.551
aF0.84
aF1.56e-05
aF0.322
aF0.0823
aF0.726
aa(lp902
F0.032
aF0.493
aF0.43
aF0.000161
aF0.0896
aF0.0291
aF0.0556
aasVPerfect Symmetry
p903
(lp904
(lp905
F0.02
aF0.628
aF0.921
aF9.37e-06
aF0.145
aF0.069
aF0.519
aa(lp906
F0.00677
aF0.524
aF0.881
aF0.00382
aF0.231
aF0.0334
aF0.531
aa(lp907
F0.0601
aF0.613
aF0.968
aF0.000377
aF0.317
aF0.0522
aF0.822
aa(lp908
F0.0336
aF0.627
aF0.831
aF9.74e-06
aF0.159
aF0.0452
aF0.743
aa(lp909
F0.0277
aF0.523
aF0.884
aI0
aF0.0763
aF0.0389
aF0.432
aa(lp910
F0.00382
aF0.483
aF0.633
aF4.12e-05
aF0.0936
aF0.0263
aF0.384
aa(lp911
F0.00112
aF0.459
aF0.811
aF3.13e-06
aF0.183
aF0.0384
aF0.426
aa(lp912
F0.0053
aF0.478
aF0.669
aF2.97e-05
aF0.385
aF0.0321
aF0.221
aa(lp913
F0.0468
aF0.716
aF0.898
aF0.000739
aF0.364
aF0.0337
aF0.863
aa(lp914
F0.0187
aF0.499
aF0.762
aF2.3e-06
aF0.0965
aF0.0412
aF0.284
aa(lp915
F0.185
aF0.615
aF0.404
aF0.000579
aF0.0924
aF0.0256
aF0.353
aasVStrangeland
p916
(lp917
(lp918
F0.0838
aF0.497
aF0.746
aI0
aF0.235
aF0.0282
aF0.46
aa(lp919
F0.00219
aF0.512
aF0.786
aF5.36e-06
aF0.105
aF0.0267
aF0.324
aa(lp920
F0.018
aF0.321
aF0.724
aI0
aF0.165
aF0.0315
aF0.302
aa(lp921
F0.307
aF0.496
aF0.439
aF0.0016
aF0.105
aF0.026
aF0.351
aa(lp922
F0.0155
aF0.536
aF0.707
aI0
aF0.162
aF0.03
aF0.551
aa(lp923
F0.00409
aF0.398
aF0.828
aI0
aF0.0859
aF0.0352
aF0.644
aa(lp924
F0.365
aF0.454
aF0.503
aI0
aF0.0768
aF0.0281
aF0.192
aa(lp925
F0.661
aF0.449
aF0.472
aF0.862
aF0.102
aF0.0315
aF0.388
aa(lp926
F0.108
aF0.562
aF0.719
aF4.01e-05
aF0.107
aF0.029
aF0.236
aa(lp927
F0.00783
aF0.35
aF0.858
aI0
aF0.158
aF0.0494
aF0.547
aa(lp928
F0.0807
aF0.499
aF0.757
aI0
aF0.0781
aF0.0392
aF0.198
aa(lp929
F0.974
aF0.527
aF0.204
aF0.0106
aF0.11
aF0.0278
aF0.331
aasVThe Best Of Keane
p930
(lp931
(lp932
F0.00158
aF0.521
aF0.786
aF0.000858
aF0.101
aF0.0285
aF0.455
aa(lp933
F0.0658
aF0.448
aF0.619
aF8.67e-06
aF0.094
aF0.0259
aF0.341
aa(lp934
F0.000684
aF0.47
aF0.775
aF3.51e-05
aF0.146
aF0.0291
aF0.521
aa(lp935
F0.448
aF0.456
aF0.36
aF0.000338
aF0.0868
aF0.0376
aF0.0874
aa(lp936
F0.00264
aF0.524
aF0.773
aF1.53e-06
aF0.214
aF0.0305
aF0.345
aa(lp937
F0.00428
aF0.47
aF0.727
aF0.00185
aF0.145
aF0.0327
aF0.17
aa(lp938
F3.93e-05
aF0.488
aF0.92
aF0.000322
aF0.314
aF0.0343
aF0.817
aa(lp939
F0.00205
aF0.413
aF0.783
aF1.44e-06
aF0.105
aF0.0278
aF0.872
aa(lp940
F0.93
aF0.382
aF0.139
aF6.11e-05
aF0.0872
aF0.0413
aF0.171
aa(lp941
F6.89e-05
aF0.431
aF0.946
aF1.58e-05
aF0.0757
aF0.0491
aF0.381
aa(lp942
F0.00631
aF0.406
aF0.672
aF9.54e-06
aF0.161
aF0.0295
aF0.296
aa(lp943
F0.178
aF0.46
aF0.467
aF1.59e-05
aF0.0835
aF0.0286
aF0.0644
aa(lp944
F0.0392
aF0.616
aF0.872
aF3.09e-06
aF0.246
aF0.0524
aF0.465
aa(lp945
F0.022
aF0.514
aF0.826
aI0
aF0.0662
aF0.0364
aF0.482
aa(lp946
F0.0277
aF0.493
aF0.416
aF6.72e-05
aF0.0879
aF0.029
aF0.0448
aa(lp947
F0.00155
aF0.506
aF0.759
aF5.94e-06
aF0.129
aF0.0274
aF0.394
aa(lp948
F0.0133
aF0.327
aF0.739
aI0
aF0.177
aF0.0322
aF0.231
aa(lp949
F0.0144
aF0.54
aF0.686
aI0
aF0.125
aF0.0301
aF0.499
aa(lp950
F0.0181
aF0.42
aF0.633
aI0
aF0.113
aF0.0335
aF0.47
aa(lp951
F0.00172
aF0.487
aF0.742
aI0
aF0.162
aF0.0297
aF0.548
aasVThe Best Of Keane (Deluxe Edition)
p952
(lp953
(lp954
F0.00158
aF0.521
aF0.786
aF0.000858
aF0.101
aF0.0285
aF0.455
aa(lp955
F0.0658
aF0.448
aF0.619
aF8.67e-06
aF0.094
aF0.0259
aF0.341
aa(lp956
F0.000684
aF0.47
aF0.775
aF3.51e-05
aF0.146
aF0.0291
aF0.521
aa(lp957
F0.448
aF0.456
aF0.36
aF0.000338
aF0.0868
aF0.0376
aF0.0874
aa(lp958
F0.00264
aF0.524
aF0.773
aF1.53e-06
aF0.214
aF0.0305
aF0.345
aa(lp959
F0.00428
aF0.47
aF0.727
aF0.00185
aF0.145
aF0.0327
aF0.17
aa(lp960
F3.93e-05
aF0.488
aF0.92
aF0.000322
aF0.314
aF0.0343
aF0.817
aa(lp961
F0.00205
aF0.413
aF0.783
aF1.44e-06
aF0.105
aF0.0278
aF0.872
aa(lp962
F0.93
aF0.382
aF0.139
aF6.11e-05
aF0.0872
aF0.0413
aF0.171
aa(lp963
F6.89e-05
aF0.431
aF0.946
aF1.58e-05
aF0.0757
aF0.0491
aF0.381
aa(lp964
F0.00631
aF0.406
aF0.672
aF9.54e-06
aF0.161
aF0.0295
aF0.296
aa(lp965
F0.178
aF0.46
aF0.467
aF1.59e-05
aF0.0835
aF0.0286
aF0.0644
aa(lp966
F0.0392
aF0.616
aF0.872
aF3.09e-06
aF0.246
aF0.0524
aF0.465
aa(lp967
F0.022
aF0.514
aF0.826
aI0
aF0.0662
aF0.0364
aF0.482
aa(lp968
F0.0277
aF0.493
aF0.416
aF6.72e-05
aF0.0879
aF0.029
aF0.0448
aa(lp969
F0.00155
aF0.506
aF0.759
aF5.94e-06
aF0.129
aF0.0274
aF0.394
aa(lp970
F0.0133
aF0.327
aF0.739
aI0
aF0.177
aF0.0322
aF0.231
aa(lp971
F0.0144
aF0.54
aF0.686
aI0
aF0.125
aF0.0301
aF0.499
aa(lp972
F0.0181
aF0.42
aF0.633
aI0
aF0.113
aF0.0335
aF0.47
aa(lp973
F0.00172
aF0.487
aF0.742
aI0
aF0.162
aF0.0297
aF0.548
aa(lp974
F0.0173
aF0.566
aF0.717
aF0.000248
aF0.101
aF0.0262
aF0.372
aa(lp975
F0.647
aF0.62
aF0.648
aF0.00206
aF0.103
aF0.0316
aF0.148
aa(lp976
F0.00862
aF0.435
aF0.496
aF0.000224
aF0.112
aF0.0326
aF0.078
aa(lp977
F0.0123
aF0.503
aF0.689
aI0
aF0.146
aF0.0321
aF0.317
aa(lp978
F0.976
aF0.589
aF0.161
aF8.08e-05
aF0.099
aF0.0595
aF0.452
aa(lp979
F0.0391
aF0.494
aF0.648
aI0
aF0.0429
aF0.0325
aF0.355
aa(lp980
F0.973
aF0.426
aF0.141
aF0.0139
aF0.127
aF0.0342
aF0.201
aa(lp981
F1.03e-05
aF0.426
aF0.744
aF0.781
aF0.0522
aF0.0326
aF0.373
aa(lp982
F0.921
aF0.362
aF0.312
aI0
aF0.0972
aF0.0297
aF0.245
aa(lp983
F0.00279
aF0.547
aF0.712
aI0
aF0.0803
aF0.0288
aF0.309
aa(lp984
F6.96e-05
aF0.143
aF0.649
aF0.878
aF0.0984
aF0.045
aF0.0811
aa(lp985
F0.0039
aF0.395
aF0.661
aF0.00227
aF0.669
aF0.0319
aF0.612
aa(lp986
F0.574
aF0.612
aF0.59
aI0
aF0.309
aF0.0298
aF0.416
aa(lp987
F0.177
aF0.572
aF0.907
aI0
aF0.28
aF0.0375
aF0.835
aa(lp988
F0.0977
aF0.362
aF0.556
aF3.38e-05
aF0.0844
aF0.0278
aF0.402
aa(lp989
F0.729
aF0.513
aF0.451
aF3.53e-05
aF0.081
aF0.0481
aF0.392
aa(lp990
F0.9
aF0.339
aF0.264
aF7.11e-05
aF0.596
aF0.029
aF0.199
aa(lp991
F0.0029
aF0.254
aF0.649
aF0.000632
aF0.135
aF0.0332
aF0.278
aass.