(dp0
S'R.E.M.'
p1
(dp2
VReveal
p3
(lp4
V1dksufC13qePUoSQtfJ46n
p5
aV3rTFNeaHbShC48F4ES57JA
p6
aV1PMstGcKy2kWEbDvG9lUzy
p7
aV0VRTjdQuxEJXnfLIwLGfC4
p8
aV1K5VbVZRxLFINp1lakrC9U
p9
aV1iuLXSA7Z45SzasWBO9JHw
p10
aV3UHkw48FYGTbCnZDAvtYla
p11
aV32kmXl5F8I3XDVKNfwwM4J
p12
aV74hiJfYz5Yku9ettYwUb4h
p13
aV76UeTHOHrRTY6Mh3nTvkMO
p14
aV7yUSRT7N99FJlzbuUUR4o9
p15
aV6I9bu51Eik7CETsJ8IcMbH
p16
asVMonster
p17
(lp18
V1yStBw3HI2pnjbO3ihq33N
p19
aV42DkVLfA1tTqMm0eOxq90I
p20
aV6kGuzQYAODb1sWk3PWaG65
p21
aV47jK9NyKnEkQfVBeklwrP8
p22
aV1HlCalsFCjQWt5rqQWy8cJ
p23
aV22L2W5zBju0h7mFSfFzUJW
p24
aV6rhDqZqeFnIwUEkSHgWnTy
p25
aV4FCn9LuUy6unyPSnXVwLq1
p26
aV3ktgszyAmwQeX9tbtAahIH
p27
aV2cF01xTPbe08sLyWm6efb3
p28
aV553FIHHRxwanlIJoqjjbiw
p29
aV2yODnZAM9yQIOdeExZlCBA
p30
asVCollapse Into Now
p31
(lp32
V2CP40IsocksJWuojpvwsxw
p33
aV626DmM4jPVXbaLQvOGqfod
p34
aV0vyQzGo4ZhrOvp0zMkpyLP
p35
aV6v9uVK1AjObTnejPSxgNMP
p36
aV0ITvGtPhcFwdQnKtlabYpS
p37
aV4xcgzFHG55ofrf3UwnO7y9
p38
aV7c4TuAvvswoOpUiPEdf8ju
p39
aV6TF2lpe66YWhxmQwAzIXHw
p40
aV25S3QBF2GUKjC2G6bn3j2q
p41
aV0NcQOYLbj1vJ7A4MAVBtsl
p42
aV6dA89WcslL0B3BtbrmT6wT
p43
aV7vCWANOktSpqWOjNEHqinm
p44
asVR.E.M. Live
p45
(lp46
V777BOPJfBfSK4MBN0A2t1k
p47
aV4zrOED0t273SQEVXbEdxc9
p48
aV54VC5s0XdNZ3HAUNOSdVey
p49
aV60auTb6XR7xEgXJduzWyI9
p50
aV4Q16VCuT2W5tOfzWDy4XPw
p51
aV2G7asLWsMwSMt0l9rlz80G
p52
aV66ZISIj9kxEthezQgZid9b
p53
aV43tikaAKe0CwphbSxxcXRw
p54
aV4mHGbEMnK8wN88KOe36KAQ
p55
aV2vQSonAVFrPIlS73TOPIth
p56
aV1nzMRcVVfmC53Fo6EjU0Wo
p57
aV7M0p40NeWAnEUIU2d9GvoP
p58
aV2ZXpUrnBTYFd3vzB64Dnoa
p59
aV6Zq5JqGOUlzPCl8u6dbpbj
p60
aV13ui3asggBzeLdrGeO3xWx
p61
aV2d5SFKrq5WVsPCCW4reYWJ
p62
aV0svaiEE8lMG6Q3PjMWdxLq
p63
aV0pxceuQFhV8wsLHAiWyhh9
p64
aV1fv863XteA9Mpx5QEJfpja
p65
aV3xLQv3ccmXXgId67TU9QrQ
p66
aV5ZWx1Mw1ZhMQW3e57lVL3b
p67
aV0D0VXSJLudzu0ZMm6NfEzC
p68
asVAround The Sun
p69
(lp70
V4lgVbDYZR1VV4gEkIueSiw
p71
aV7s4pzK54o1QwxJoteeuED7
p72
aV2FD73lY4vibsp0tvAaxk02
p73
aV1IPheTyE4oK37jyUHojlM9
p74
aV2Rjs0YF2ByqFUGRhzwBL3J
p75
aV6lIKuf2OpKm1FBooDbxn4K
p76
aV2bIsGfotNOWDL0KuDS8uoF
p77
aV5gAuE9KxgF9q7CukiA9Gnf
p78
aV1aKB6ZZ6AII26vny70lIVZ
p79
aV7bNy3u2KlhKCGinyU4Bb0L
p80
aV1Yl26dUAUpZKhTx781xvZm
p81
aV6EDDP9hX7raR5c1xKupvSg
p82
aV6Z2hyFJOePatKYzkLP8t3B
p83
asVNew Adventures In Hi-Fi
p84
(lp85
V4wINWnNAX9tdoufNiXhEJZ
p86
aV5mrDY7N4ZLInCJiwOX67py
p87
aV19QV9bXdTUVK7ATNj0r6L4
p88
aV11ftZjF3IljXJn0rb2uI7O
p89
aV2S3wW83zk0CosLGYN7jfor
p90
aV5lpaTYULgbKAwtvpkPjyrZ
p91
aV6azpjnpWUzXKHiw3SuRA9B
p92
aV7aYzsNdBnwgHtB5QftgYRW
p93
aV1JPNX3DyKiHasaV6LVnI3j
p94
aV7G6N6YLeO8G1lowYQZ7Dxw
p95
aV4fihkVWJYi1swK3oDjQEiC
p96
aV7gtTp9X21dY6baxHto3RTr
p97
aV6v1takm1JhC09IuDJs0CyT
p98
aV6TU0zW9qJaG53vSa1R57qb
p99
asVUp
p100
(lp101
V5faNaJWkP4cvGVrBoy6L59
p102
aV0EX99kuSsTM9RyRAciMvvE
p103
aV0jjuo1M6146i86V55n2zVZ
p104
aV7deqKuUVEpZKN6zxBBxDlA
p105
aV5Knohtj8UsTpFZsTCkMZWx
p106
aV5isEkG9884lUoriF4hSmzo
p107
aV0Ztmm8K7D2kzGj4RxlEEpl
p108
aV2CEtYGKvWAt0MBDWFW5XQ3
p109
aV5XAHbHsz5bChzR3mjQPwWc
p110
aV5XhVU3UYE3JJa21a5IUcXU
p111
aV7chTzkbpS16xJqyhJWQlmt
p112
aV0hie3ELk1NP0caGL61IZhF
p113
aV5DEVG0b0HjHAsNgMIPPVF9
p114
aV2jBrtj04LALj8HeO0WX1q9
p115
asVAccelerate
p116
(lp117
V0wjfUZsUl6MW8qbcwSyBaD
p118
aV5qSLUilozlRgUSnfHbGwOr
p119
aV47i0RQi76b6UUCIBDgu2TR
p120
aV51ZKT6BHAnDSYyp65W750z
p121
aV5L1BH2YPxvDY2zDHjY5bJ9
p122
aV5Nj149cDPccJzifCeI6kMN
p123
aV3xm0eAgjnLfo9Gbd98zksE
p124
aV6NOri6xrIoAeUe2cusgmCf
p125
aV0ReDx5oMeLcNZIi8SVWk4d
p126
aV46yZpHEffqteQLp99GmXTZ
p127
aV22aUkX4TQG0AYpxZzz1cPf
p128
asVLive At The Olympia
p129
(lp130
V4DOHgQsLpCkfqVrFLFfg9b
p131
aV2okgqhPt8zh13afg1pY4Ea
p132
aV0KeDhUHzXAgYhD4dB4D9Wr
p133
aV2udVlsEe5D9fuz1dZoXpet
p134
aV1emqS5MoSvEVsbHemOJl7F
p135
aV1XMKpYxbGWSkCYFGgPSB1u
p136
aV0AbNammOjyKyBbpjz9871i
p137
aV2zqn5BmpycAUnaUrYSWvzG
p138
aV0KF4sPp2ZzRpGrgvQWCJY5
p139
aV2EWqknM9dFakeZMciJRdvl
p140
aV3N4LOvU6U6f2vpO3Xc18OJ
p141
aV3AdyPM9rfgfPxoWS4tKh2O
p142
aV5TTFP8XCOTum5gdOuWLOSt
p143
aV6ko9hxBNEt4g5gqqKBuFnC
p144
aV0Vs377iK2lipny2OPuYxge
p145
aV0Q04gXgIVjtcRacQn3aOqM
p146
aV3NkedUIcLn8cgWVFJtabJd
p147
aV15QbpQEBTRv0EuckF68rV9
p148
aV3JE1WcRWsgyjFuVEA5YIEe
p149
aV5IYtvBvaNPOmTZLCQNlaWL
p150
aV7bYQJntpeqPYigtpuGBw1p
p151
aV0aEnz8syJ0dmlXg84IcUYd
p152
aV29P6EnPxuN2gQWavA9BBK3
p153
aV1ybKxSk79IVjoanjmwZEpx
p154
aV0XKdWOq2LRmyBagQr8sR0b
p155
aV33DraXTUM1Cvi5qXTeyguJ
p156
aV7vBG7r8y19aZaAptBTwiM1
p157
aV5Hb1njb7NEyZAHeAipTYoZ
p158
aV19zaIQClhdeVTehVAt6kI5
p159
aV1hhYRTTfzrtswK093iHiDE
p160
aV4AQLVtvUCI0WXHN4J4ZkId
p161
aV2QOWz9Cp750Pu4cUiw1xqN
p162
aV2idzpGKvtzK4yHk4MZavKY
p163
aV0KJGBi87xi1CYicMCgawFA
p164
aV1oY0dae5Lbkwtnsaepy3xW
p165
aV4VoaY9kJG6nv4D75zveMyJ
p166
aV12s17F7fAUt5zi029w6oBu
p167
aV1A65huYAzuW6TnuK7rHYJK
p168
aV4yLuKmkbybmaoSnK7yclU5
p169
asVAutomatic For The People
p170
(lp171
V3geRffSf6eAruhg23RkpKV
p172
aV0bPg0OA0ep90qVCYfymwO6
p173
aV7tLTov4Ax1pyGcaV4qWrP5
p174
aV6PypGyiu0Y2lCDBN1XZEnP
p175
aV7JGzUfmXJurpJabggwgtVP
p176
aV0rhuzeJs3OHpPjvAsCB8rE
p177
aV3nBOTBNCyICHIuWuZXaFSp
p178
aV3d3ZNcICP3hdkovGj4YMqI
p179
aV1DT8eLo3WOJ2cCDfYWMU2G
p180
aV4jLv3tDBu8ww2R07DvL12s
p181
aV6G0NzOx2jEPFsSmhr9N8Ys
p182
aV1e3Q7gE5TRUklXOlZFKIrv
p183
assS'Snow Patrol'
p184
(dp185
VEyes Open
p186
(lp187
V45mYuW9WeuhcU2lLAt4DDk
p188
aV6DGdgBp6NxutVUafsnUdnN
p189
aV11bD1JtSjlIgKgZG2134DZ
p190
aV2BQJVwxDZEdGvBOeWrj34g
p191
aV7KgiNNkzKC7jpnoqhrxXTI
p192
aV1Ow3WmxZDYdPpOFIhJ4pID
p193
aV4Qz2UOSuIpPg73vQ8XObif
p194
aV4kg5hAOumbLtNSg6J8aq8e
p195
aV4ojpLTbBmGFl1z3e0FPftY
p196
aV55fg1bDXyNUsY2KaSMNFpA
p197
aV0iU2CEwydC8jYxAk7RHdnm
p198
asVGreatest Hits
p199
(lp200
V5XzG45J0UnEmHuWtB3BRDH
p201
aV0W1jvQeXOJmvUUQMOPSVNx
p202
aV5wIHscgZOpGk2usCSEpN1D
p203
aV4IHNQeTMjNVDgRhybOsppL
p204
aV3vRwdZuUuoDo7YW7qjTdE0
p205
aV1hr7xMWsAo96jVmOeV1diX
p206
aV7EEpVPYeW8Ycaw2SlP1u7f
p207
aV59UOzBWI0VXObsG2oZJLia
p208
aV5wOxk3wXs9zjxrkEaaZUMe
p209
aV4yYukKKFd6uU2Zl9zujTZL
p210
aV5GL3l1frN9kfc6Ay1JgL7k
p211
aV3UB3DHYsDRC2rN3rgwDE0z
p212
aV4rswhKHMiebgQcSQDZvHpc
p213
aV1WcQmS1l7eo185uxXgrAD8
p214
asVSnow Patrol - Best of the Jeepster Years: 1997-2001
p215
(lp216
V6ETiIoaP04khgWMvyukaI3
p217
aV6srbo4WSUprZ4qEqnO9g3X
p218
aV6OznAco0YKqGw9jeSfOzCB
p219
aV6aenJc1pLt3i3mlXxjfgCS
p220
aV4CgdXbQYzEoiok3Z8JxHv3
p221
aV6CFzkpRXdTD4TAa1Xce7ER
p222
aV0fGgRalvolrD6JFFqXEPWb
p223
aV4nOK67rxS2TizAORhuTHic
p224
aV4SRKksJ2F286BaZzfcdb5v
p225
aV5LYGohrgkyq0NNKJZSSWvz
p226
aV2m3gpgH0gwYy0Y8WVIqPVH
p227
aV04zBGY1ij7qUX62ca87Bep
p228
asVFinal Straw
p229
(lp230
V0QRxsyyr6FVY99ZUkaQSOt
p231
aV2cAMcIVnAt4vyObDAwY10j
p232
aV6a7CBWfp3zx6C6F6ik82C2
p233
aV3bkwyfvvVjdBuqj58Y0YRp
p234
aV7FnPuMFgc7YDuwQkGpttr2
p235
aV3Kh58CfPsfIl8XkCEKWbNf
p236
aV6kesIBNAY17BoAz28pnWMC
p237
aV0RwZ0ZBJ7BOROv4JkewvKK
p238
aV2rzMe1vkNjDym6bp0hfuoU
p239
aV2VNLhLJwQOWbKcgspoSxdv
p240
aV0t5uvwOEsZ0kRM2R91Jrmk
p241
aV1i5c5PXgKEBQbMTgaIQwqn
p242
asVA Hundred Million Suns
p243
(lp244
V7qxXlblRDn2uYJkDMZPDGg
p245
aV1HjeMi1EwfVaddHwpGjWMO
p246
aV6kC2MysEER7y6zgnTY5o80
p247
aV0tDSbkYMiJPljH6b4rmWye
p248
aV6ADNTGB0EWubtHDY8gfOaC
p249
aV1Aaghfmt8pGitW02qlzo4E
p250
aV7rvvRerwZqUNSSGX7SEma4
p251
aV0kJxuCRDtnVFAbgT8b2osx
p252
aV0h1DGF0VZcqPiPNbeWrFmP
p253
aV4Ed41Gt8tf09GjIjpMNucE
p254
aV1rERCOiL17Ouhs8GdCB6bt
p255
asVFallen Empires
p256
(lp257
V6l1upBNsEoeOm42kldz4qN
p258
aV4BBt0kc625eUAdG2XpWPHm
p259
aV1N96ja5vHzX8cFr8rExKED
p260
aV6ybTAbcSZuErLanRfa2vIL
p261
aV0nat6aqrIXw9vkmIRmAGPv
p262
aV0UI6Vl46wggeDdTkGj9Thr
p263
aV5ZkumjvOakFhJdDeJ9hV9n
p264
aV4PNAiSL3Ev1bYnObB9o1bY
p265
aV7tI6xPZworV0dPtf5ZMMF6
p266
aV7pz9FnXkQd0MH9Ms3358Cj
p267
aV3BEbJsjV9wONO7yHYjURD5
p268
aV3wPkzqvkHMUrNhLZEL9lkq
p269
aV0OlBR4bMo000zpPzcL9SSk
p270
aV1oHaluSqjd41GHx4GtelDq
p271
asVUp To Now
p272
(lp273
V1ZZYwFDt1nWoDEBbvUKMPP
p274
aV329TqxWgwafgOVwlhwuRA6
p275
aV2b9PZHnyIiBvim3OeKulw5
p276
aV2PQb0GbjqxVobQPaPuBg8x
p277
aV371DjZRmUgLlJS15gaG8zU
p278
aV4k7P2LIQco8YCVbIZl1vZB
p279
aV3chzNiwqvxzMTnw49789UH
p280
aV2y0EtudzQbJUG6lpXt9VOp
p281
aV0MBS2kSgIyisxYQSgC8BlO
p282
aV4mWMSk1VSyXNKaoXKRJxqD
p283
aV4MTc42W3TX4y2yiqtyZRtY
p284
aV4EyhIqyXOrGQL2mUfIWdVa
p285
aV3A3nJUnxPo4LFxEKxnBxwn
p286
aV3A3EhSiJECTPTp2kjA5LGX
p287
aV1QjNJE2GhGr8Gax4NB8Uki
p288
aV3KzonbZYsmlwEl3UjJOeuk
p289
aV4SgW8HlnLvdeQPVclwFtFH
p290
aV2bHThMjtGRwXb7rOOuussJ
p291
aV48eD8EVhnFqA8iELbQBqey
p292
aV2d0N8j1eIQiUMOEg0qyFym
p293
aV74lydvQWYYLcnKyvkIuK7r
p294
aV6F0ZrZkf2XOA0rtZoYO9G1
p295
aV7kCrHQoLWB9x7cxPQ6ffwg
p296
aV696hMQIEkCLuJONRUgOPVT
p297
aV0zzyQwo69UeX9HfZqs7CFZ
p298
aV3Pw8ed9QUWioVt5353rySg
p299
aV0dOJkq5JlEgqQiZZeB41mq
p300
aV2IdOJtpS2snwtzzN9EMR8A
p301
aV1d7RTPT0BOQitLOE5Uf5r6
p302
aV7DBbl45kv1LdLV6HTXXB4e
p303
asVLate Night Tales: Snow Patrol (Sampler)
p304
(lp305
V3qBcNNMwRVyjhpKcy4ihIN
p306
aV4WZBm7NMLljZml7QJot3kh
p307
aV4MKSmanFKhk2FRYJCS5Uya
p308
aV5EexlY0pR1gVxdwVMtuOjV
p309
aV4vhrC0uDtJqg0aWMlbSgEF
p310
aV1gvGCYCUPYBYIlUkHezdjQ
p311
aV4UdbPVoUKzd1TJXPIEPC9b
p312
aV0BzQN7le9AazwcIRzIUFUp
p313
assS'The Police'
p314
(dp315
VReggatta De Blanc
p316
(lp317
V5xD021bM8VbqrhCVhxRozx
p318
aV5aYrkvMpCa17bxmgMGROgE
p319
aV5lRjDZ5bKLrglbwo9Wpno1
p320
aV1fEHgPGxKOfpdWQCvCRGAM
p321
aV6VEC4ct65NqAtfgvPLREZj
p322
aV6ScRklja1Dsx1MJFHIDkYG
p323
aV39uCuBGz6ntgsGUaffMvWa
p324
aV6QtpjoPDpmHiox4FQwAj4I
p325
aV2OtXaxcDkG2GOSEE3teVH8
p326
aV6izKxfpdm4gPehraO1cpSe
p327
aV6afnJOdBNiYoTbGP2fJJoS
p328
asVGhost In The Machine
p329
(lp330
V4AMlNIOfExpjVbuHufpqgb
p331
aV5pDmunv6G71w7NSjOPXbYw
p332
aV6sFr03q6jApsj26gmdmbRr
p333
aV6PvCjpeuo91Owoi4i5XVb7
p334
aV04FO0pl1GMtJ1M8l4I1eoR
p335
aV5ogEWleFWrFb4nXrm8Vc1m
p336
aV3cYkpsx5Ja5TZwhwLl2Bc2
p337
aV7DUklyDHbmB0ur5aLkEe9I
p338
aV4mwvz3MqMTNLMxuIHeJbGd
p339
aV1T6EaL2yoW7wetDWFLUSFL
p340
aV5A4pnl4NKRq3XcJ1JmNjEQ
p341
asVZenyatta Mondatta
p342
(lp343
V4DIRsQfLk2mfcrIOQNgAlm
p344
aV769fkg9mElByYmcaFlbZE8
p345
aV4EN4n9GpFBk4Se9GDO6jPb
p346
aV0BJENXoCQeneWFwRIuc91a
p347
aV0D5Hp77T57bIHPYQioYXdk
p348
aV7CaabRQtvzfnoT4oLRVaOv
p349
aV1n7NZSDJsMum8SN08oG8Ya
p350
aV5VDHb47FNL44eWgKN97hz8
p351
aV4EtM2OfOXfK3cu3SVRiU5k
p352
aV7HC9cPwjbsVdwPC4Su7o1o
p353
aV05C9UqJagdbgBC7MG6fep2
p354
asVSynchronicity
p355
(lp356
V6rz8k4FrzNs33CUUxPqiW7
p357
aV70BHonY21SnCndJB68u4JU
p358
aV0ZytE7oVQm5KD2IwRqPEmN
p359
aV2nuPGoPyvM3ZwHxjcUKhzo
p360
aV7nlSv4b7TSfQRs8vqLklUp
p361
aV5N1719oH5ftLWiKOgWOCcE
p362
aV2sXp9Qmvc7mRaDBjBgcGGi
p363
aV6dCaDrOopBA82tBGFzp9nd
p364
aV57ljIAuzZgBSzHr3hLYzLZ
p365
aV38Ni7GMetBYiQmOKEArik0
p366
aV13DqH0mXW0V1VJm41ZMZHW
p367
asVLive! (Remastered)
p368
(lp369
V32aEb0tazMqgwxV6HgqmZa
p370
aV3KGNrDvYc7tpQV3GFUztFG
p371
aV5xt6PtDzDSVvG5idKlFwSQ
p372
aV3zS2AO3JObmmn0wgpf3p8J
p373
aV6IQUGaUirz0EqzRbuQm5FG
p374
aV0xEUM5KvHsyV5rCX3McdgT
p375
aV0kY3YCiyKz4u4X5B9PssDe
p376
aV5uDTnIBqn6sKmrw3hPlQzb
p377
aV6FosJHcUyrwP7DRUn9fuDU
p378
aV3SavAIHc2oFESx7bkeXdUR
p379
aV2Uj9KejKfrHOWWmru2vh2H
p380
aV4miYPLJxId4QzCMIOQpiPB
p381
aV2jCTpkRtF2gIOEwM89WDZ4
p382
aV0XaBoFkv3sVx2NaMrXc9UK
p383
aV00mHr91d8JdFa9L3VQI20x
p384
aV5zCUkrMrgVzpOj9INeB6Sc
p385
aV0r8a39y5BWPVfPIzYYfGje
p386
aV7JmXfrolAcxMN40eqt6n0z
p387
aV6GGKqbpPsLiPHMdRPxDBuf
p388
aV1PHrBvGeomM0JIJveNOgQa
p389
aV58fSGlvWFKNCXJJT4FnKJQ
p390
aV4xHaldI03GAH8gGXf5szul
p391
aV5o3nf45wFClDSjzzN4h2xp
p392
aV7JUefuapQaGeUVulY0GNLU
p393
aV5buaog8AnfVchaSVc1Yk7w
p394
aV1rM2jKr38hDa2cidCjCXUL
p395
aV6KLbA1VuHgUalmADRr3FfL
p396
aV4DkjUxyD3HGT54TROm9gvr
p397
aV2GvIbURESkLZlSpUA8mAVK
p398
aV1WbK234JffLfcta3RuPZAp
p399
asVOutlandos D'Amour
p400
(lp401
V6wipxKs2qTU2BZbO2Ft7LI
p402
aV0rN5OBAJpd9bw7uvvJsRek
p403
aV0SYRVn2YF7HBscQEmlkpTI
p404
aV6hDRwiVwBnjgVWK9VJLn8d
p405
aV4l5KXYMheLvFMfWVsIFCyl
p406
aV1Ng2d90Ep3UUuSOzdSXNOm
p407
aV4ZtTqL0eBzX04nLzETIFZ7
p408
aV4nrKaYbkDHuiDx2jWFunBk
p409
aV1tZtxmIFD4JY5DGW0yXs1d
p410
aV0w76trjVclWLTzRM9UgLqW
p411
asVCertifiable (Live in Buenos Aires)
p412
(lp413
V4rMfdcnfsWNPlIZCfEQive
p414
aV4N8Nz9mvPlbflRD0pFFZw9
p415
aV6e3ksyot3Qr0qB8zp2yws8
p416
aV2UtXxz9XGRn7qvZ275H7aJ
p417
aV35YSiQbE2F4GC3f5oDDheq
p418
aV138hnWlgWVZmcLeMH9dwWv
p419
aV4NbCk3tu6e1aGScLIHhLl0
p420
aV2cxb2rMVpYp6m7i5kLwVC5
p421
aV25Pifu9g726ZBSsBARVati
p422
aV07EkVhJn2GedVKyH4JuoPb
p423
aV1AK9gFulCjmoq5THv0pMWs
p424
aV1R9nNpMs16QLP8gjpDm7lG
p425
aV0NgI1X1RvQW1tFhgWggAqo
p426
aV7qXOUUDmgkYql3k9AJUeIw
p427
aV64Vqj0o6svJ89DQDVu3aIU
p428
aV0hpmGHnyHSL8wTpZzX29zU
p429
aV6ChuOi6M3GCR3sYZvdBbiS
p430
aV3ZPyWxGouBXvvSBqwNqCMC
p431
aV36oCwUMkADqMlCmO7rOzHn
p432
assS'Buddy Guy'
p433
(dp434
VLiving Proof
p435
(lp436
V64qn2ubksGYFxUXaJDZjvi
p437
aV3CXsD7jYxuhfZ3tAF43PYR
p438
aV60TDGxABXIovTXFhJrmHNR
p439
aV49xNJS9z0ssQFNPi2oXxXC
p440
aV0jKRgLaEY01IeLtRcHplD7
p441
aV07yQFzEeQi3XicvBWfPNx9
p442
aV0tu8Vg2asD3B5nSsqGr2Wd
p443
aV5RuV7aPKzUHxziH9yO1E3H
p444
aV5nkHNrP3MoKINRAfARAT1c
p445
aV5T5j5CkWxX3eKqxbkvC6go
p446
aV0YBikj5kIxHFWYiE9Mw9px
p447
aV6BUvSO00sqyt0NsfrKvs6i
p448
asVLive At Legends
p449
(lp450
V04pwFT06oTmNpzO9ZQcTkc
p451
aV5gMLtriml9j7U2yBNTc82x
p452
aV24OVEanMXXulGTdoMzt4dc
p453
aV1yDN6fU6cmUls6A5wGEoV5
p454
aV4WVGM9HcaP9NH0yux8JyG0
p455
aV22Zap0D18nLrfEuAZDCIcb
p456
aV0R4FrM0FQwfySAevwMecVc
p457
aV61E4Nb6TrlqCrW0IgDoeGs
p458
aV5UNgViRmWrc0XEUZrQ9Eu6
p459
aV4DeFEYU6AH27O9nS8V0SxI
p460
aV0fNQfMFczhCScgxAqU5rT5
p461
asVBuddy And The Juniors
p462
(lp463
V6HONBSAPNuj6bgKgi0chm4
p464
aV5JSgnsiRi1mZvAzLrINMV9
p465
aV5AQKHaoK1T8IgHTgP1kK7B
p466
aV43YcwHzI20qRzNZFEtt4zD
p467
aV47ztISB0mMBnEv4ddQmssk
p468
aV7AvRHNCIbY2xEp3Few9pyc
p469
aV3WiqW4mqwH3GGKovXV7b7l
p470
asVCan't Quit The Blues
p471
(lp472
V14C4quRYkdhRyQZqUiIpPC
p473
aV0pkFkN3cNQZVHk6URs8WGD
p474
aV1zJW3g93al9esSh0YjzrK3
p475
aV6FGwMGTV7KAMFIOVeFqCb1
p476
aV1GxeVooy8wwfLQIVqwGCfd
p477
aV6gXkWNlsClBkLeWXDlGouj
p478
aV2hGjj9LySz0fZD0OXxWhiR
p479
aV0otbONXQSSqzuEZWudkzRW
p480
aV5K4l7t5IlwYiaRCZtamcch
p481
aV2RV9o4BtDR3yX5Ek3vSp9g
p482
aV4NY61ZerEDXWqehVYpldNX
p483
aV23Y2dqJjxMRObVzj4QAzGC
p484
aV0JzRHIkgYu4Ixwjc0UYmon
p485
aV2enJ2JXKyRnweH6if7hr6g
p486
aV3cVcqfeUkR1Ok1QtfRYn8H
p487
aV580uZ6ypdRCzbglJ9eHYrO
p488
aV2r2UnmPNRHUa4M7skkRsDK
p489
aV1CZJNVrWOLtYJ58kbOfqPo
p490
aV2Mwfahwqr7bPhmhRVPrXLL
p491
aV22W96oGvTk4kvL9oHnIxok
p492
aV2ILkl8UzBscP3VlyW3mOl0
p493
aV1miHoUonVb6qyGzc5aNeCI
p494
aV3A9JmynKe7TW270CtRarGi
p495
aV0BX4XzYSTD4HBz2BzcQ8Iu
p496
aV0kHOrSqcnuFAWcEtLl7eKq
p497
aV4VaflKdOTbnKK23bU2VKoy
p498
aV51zsHVZnhPY1wqCW1yUd2a
p499
aV1ksUwBPB3sFRK9flJB0UXZ
p500
aV6GcQV50jII3TVIhkMmk6qI
p501
aV0jFL0ybyQtWRf0S2jFBmtk
p502
aV6Fin0kWmiY1ZNK6SKQAUYV
p503
aV5QYOA9EOZciNVMthQPE4pZ
p504
aV07OC54rqUb9uJkWVAq4jQB
p505
aV6T9MYVVfUGrXq0FAg9hqjA
p506
aV5WeuYPBHJFsZG7Tt58AjIw
p507
aV4gSgCbNUOMU2P9qypmdunw
p508
aV2K6djF1QodW96Ohxh4w3eA
p509
aV021ug0Yg0xc2uHKx0Luug7
p510
aV4ZGPuRoebG2YZReiR2aTM1
p511
aV5xVej3Umcb7jNeZ36orR6C
p512
aV1iwHZYFkKwjFOm3bdUN1Hz
p513
aV5YWEW7Ly7lTKKrFotFLIT2
p514
aV6K2jAPeQwsUsrh6Z5fXVCs
p515
aV5x43Y3cKUlwnOlRWkb2IMJ
p516
aV2x89e6wTjtv7mb82rK2YJt
p517
aV4pcShC8Q71wDg83EK3XuF7
p518
aV2b4MvVA2sB9ggYZ1TTtTQ4
p519
asVSkin Deep Deluxe Version
p520
(lp521
V3zvtVEsdlYJXLD8JvysV5N
p522
aV1THAC1OXU89ibytsfsjU8d
p523
aV4RqhJa5rYTow7EnkQjlC3x
p524
aV4K7AgoFAdM8Y383BdLTIjD
p525
aV58CaL2SORDmK6CKeBPt65B
p526
aV7756VpMN20weKpT5UTUKj1
p527
aV6EkdiPnCyK9gEpn1hnXTS0
p528
aV2hdVcA24yXTVyAx1U2MXYQ
p529
aV3R11aqnxH9nlrxyAPV3A3Q
p530
aV7dSjODd6GyyCSUbq1fPIwq
p531
aV3JwXSMuS8djLZiWegMsoAu
p532
aV365t30ZNDVxET7BJADghSZ
p533
aV3h6lTbhW54CbblzuR2pWys
p534
aV24sPOWKYuEgtb798NoGTZc
p535
aV7oddmTvNfZCaljEuxs75ir
p536
asVSkin Deep
p537
(lp538
V0wJarYgspWWE38TWkYEKAm
p539
aV77ifZUZT3xF83AOlpM1pRs
p540
aV2j1ePhAQ0HaNLHkzJAiZPD
p541
aV4buLCqUEqVLT5FvLBB07lm
p542
aV5RwKeuegpGppR2QUuOAshT
p543
aV1lSQdcpx0sHGkmyyvCWPeT
p544
aV4zIP6f2djuZNNKlQhSfwIf
p545
aV4HcYFHirO3HJWcJMRFDdO7
p546
aV035MjeHefPLu6RaxCeKvRR
p547
aV3VzUU2cj4nHlA2R0IlURle
p548
aV35q60hbzCkNIsN7Um1J3gZ
p549
aV5stfFkP7jZWQS7oFNV69I1
p550
asVBorn To Play Guitar
p551
(lp552
V7yXuquZiCxTyLXzPnwlqJv
p553
aV41DyUcEAiyVtNCrWElC32R
p554
aV47WHiyCLg0ZEoPVwxgikcX
p555
aV1KchHLQECDtLark8Vng2gg
p556
aV3Ug51eYATZ487NwOaTbpAJ
p557
aV7gecHxcrApzeo3KVwh2P4W
p558
aV2ehbNbw4JFSklaDBcpgXD3
p559
aV31dzIMOW5SH3UejDcmY6Ws
p560
aV75doIlY51XyE2CqabWHKYT
p561
aV7AastGe8zSntLVk4VZX7fY
p562
aV56FiyFl0ZLwICBEKIGlZu6
p563
aV1fgZiaEwBM4kWspi3Ay0kU
p564
aV37mWDk2nTyx0eon0AkdOKQ
p565
aV5xAvbGs9u4Sb5t7n6n11wS
p566
asVRhythm & Blues
p567
(lp568
V5sPZH5scVV63witIumgJIa
p569
aV5WB3M2Mjvdnjd4vLbo2qqP
p570
aV599KFVKTx45bNXIYhdVCxn
p571
aV1B7Gz0VHnKrjzPnNuZvUGm
p572
aV2bEV7s9vfeQsbOwYUNA6KA
p573
aV15e3leRc1c26oStnjjiex6
p574
aV1EMtLG1uQlcITqqsbmqAoC
p575
aV3aa9lEOjZOn2Om2vdMCR1E
p576
aV2DgqYxUQw3YODAgaqmS6SJ
p577
aV7xRPfG0cM9klqDigaRl9VP
p578
aV735m6n2hjXzzypOTQSo6rY
p579
aV35sEYu9d2rT5BPLiOiMYob
p580
aV4H5bCp3l0UEM2ZSMNBOPxU
p581
aV15qhvP22xT26ixTMX7gjEq
p582
aV2nYMvXWds4LwWWfcoEPfjZ
p583
aV5BAw4LERCGnR90CyXID6hE
p584
aV7hsbxGPIEBr9G2wP9cTO2L
p585
aV1IotAa8ve6tUd2v0dWGHOW
p586
aV5fs3sNq3KK9jpbTNCf324m
p587
aV3kHFNdsMerkfu3uPpOnR9a
p588
aV7whkteyvNV1osdka3Bz9g1
p589
asVVanguard Visionaries
p590
(lp591
V1ImYeVGOkH9MmPp5uPyvep
p592
aV5yJmJjUGnxLj8lFpLRax4g
p593
aV2DR9kwwP8fRT9t5wF9sqRu
p594
aV7Jm5CU2u0XzrGzbzjmQ4VI
p595
aV5c4D5oNoHM2ZCxiA1j38px
p596
aV3HYHCB65oatKJTjU07MNie
p597
aV3MhDmOjvDQunw7uMfcn9Mo
p598
aV3WHVIdxuHxGtuhk0aFfmtS
p599
aV2TJz1a16EkTnbrEJXjKQAE
p600
aV54OkjS2udLgpGQGzqiMKPg
p601
asVBring 'Em In
p602
(lp603
V4e03J3XTZ9SZMlbZ1RhgiK
p604
aV3z2gZjo1S8XLEAgfxXaNYu
p605
aV0BrmbJnPYcd7gnvLYqxw0r
p606
aV0lWpblU8RVTRpwYRKGqec0
p607
aV3e1vsLS7W9LNOofXgGccH3
p608
aV6DjmnUmH5t1mDJnhDbXVkX
p609
aV1amH1FjaNDAaZVpHWzcztW
p610
aV3rxqTIzSZGHpjG0NBleFjH
p611
aV3cwJCxJAfXGjKfdjJBJF7a
p612
aV58EgXnxSQ96uarbDXqVz4b
p613
aV2pcRyxfhPdqk0wcW2VdEpF
p614
aV34JrJDLnQSCdcvX54bRYys
p615
aV7DDDlFgPwHkocHjlELfQFa
p616
asVThis Is
p617
(lp618
V6O6JlU1AiQpeOMnIV8fcar
p619
aV1da9ApwtFxSAv6WGWFwm6a
p620
aV6IBK1Lk4vhOQ992Nysbm7z
p621
aV3ALZqdKxMQj1Ly3E3S1ElC
p622
aV4Xq6uRC6B0dldNAnDN5eTj
p623
aV5Oyc82p2OHMf3xdjlbM392
p624
aV3Sju0uGwJOyU0vOhDpE7U2
p625
aV6e22NiWLuDqPbKVyTmbH2D
p626
assS'Derek & The Dominos'
p627
(dp628
VLayla And Other Assorted Love Songs (Super Deluxe Edition)
p629
(lp630
V1BGVklnx4mU14VQgCwLY35
p631
aV0Gl0KOFS0I0HFkHSmTGJTr
p632
aV6VtX65zfTbHPpeWQysRaxW
p633
aV4jeLkOXA2NKRFfjjj8im1h
p634
aV5x9K1jGj8boxhboInG1FuF
p635
aV5RO3bTp2tcW344zRikavSu
p636
aV05wFe6L7gz3pk1W6q8oWKj
p637
aV5PoXbYl1dh0Axfa9DBdUrT
p638
aV0mcW5vcRphbDoNu28FoZ3G
p639
aV0dWD1IFtCe0j9JdeyIOKR0
p640
aV7bfVZO1Wq2vu40VawtCW2z
p641
aV1GDd532NhV1uLI1vuhOmh0
p642
aV5zapHXSbNi7u9IqWNo0fuO
p643
aV40xHesFWa0pIZW0Vh99v46
p644
aV7F01KOcoawJB7akObBYJfX
p645
aV136FKGFqD0WMdasekbOi8q
p646
aV7Ey4FEqYTUNMg1bCyA4Ohb
p647
aV2HSEunOhsN4Wyy1g0yBM5h
p648
aV2iISE7nL2qNhDu83Mgmfg3
p649
aV3sroRBfc3XUTVFdPPdkn9w
p650
aV41R8wZX6LYiQDFD4isOzuX
p651
aV29Mmadkx700kPqzIBoN9Cq
p652
aV6BZvdGvZCjHraNxyR125lK
p653
aV5WpHgb4h9DLiJ9G3VqxHia
p654
aV1fd9Y3RuEc9QVc7oAv2ERd
p655
aV4Nkaq0dGUWIJLrXEW8ffVU
p656
aV0SlO2YxyqpD3i3w3QzOPIr
p657
aV5AZJya89S3Fgl02XNWOkqj
p658
aV2Pw2LMrWwZrvkQ4SmHEmaJ
p659
aV16K4KqCfsry033BpxZaiGL
p660
aV5Rb6sz4eWjt8cLaXoqzWUw
p661
aV3R8s7UCxI4NGRXVXKGIJCQ
p662
aV6QKX32Y0ItqFJ9jDdElnmM
p663
aV6FBLEmGkMTeSlYI1vBz6Q0
p664
aV5UmaKiigRVz57LyGA4j6vD
p665
aV0hnTzwT1n6EZB7Dyl8oe5r
p666
aV3qZjfFmk41tiv2uIQHQT3d
p667
aV2e1GVKsg1ilvm6BGNOMpUB
p668
aV0qn14BYTBYHNKnqprffu8M
p669
aV4CyyM7T5YRCWjPYH80OXSC
p670
asVDylan, Cash, and the Nashville Cats: A New Music City
p671
(lp672
V41l8vlUqUOvNKMBug7Vk59
p673
aV6YTlOjqLBwxT4vUY1bRITU
p674
aV7w93HMQJyQCmfsniZOi4M3
p675
aV4gJJt7jc1ND4qzUCdlYqQX
p676
aV7apRL902bfRVTk3Eskddai
p677
aV51byvMACj49TlUTWhb2Sds
p678
aV6cBQSgX22JPg6qLwepCGmb
p679
aV10OgPZcm2Ow8gHmkic1xGH
p680
aV4mppSLC9WUWBrhxgYJu6gU
p681
aV5eZWBIl0DtkN6wY0eNLoNY
p682
aV6JLu6banDO84Xp3HZ8u3i7
p683
aV2Mp9PipHro5rDWLdesXSsA
p684
aV1btHIalOyAfl1XR7yVteUR
p685
aV6QHS7km71bqfFc1JH570Yi
p686
aV1K2QiewZoHzfctR1PUrLQw
p687
aV7igbGGyvKeL9yKO2Gvw3If
p688
aV6giasabZBW0eUJXDIzed1J
p689
aV0lHcJr8AwWW2xAngsPjcFC
p690
aV1egktI6ywwvqxIsvVSacDn
p691
aV4J3tEAoPQBGZnfEXempuus
p692
aV2WNm3iES4lY8IMiEBRqfGS
p693
aV59q5iscAfXZeJ3j8zKFv8n
p694
aV6yM0qCF0Mh5yCtcF3NPtiG
p695
aV4SOireDNsPiIucLK8qNEEW
p696
aV56Whxh44CysaaJM8XcGSCf
p697
aV7fTbHhQtospiVmn1ZZ4TXW
p698
aV7y5gC1lxpZhTe2NC21aFij
p699
aV21LEoNJFtDlMfMlrS5PTJM
p700
aV2obqdDUWBctiXuag3Qpvm0
p701
aV2pZF8Nek6m30aSoqRM38f9
p702
aV0ujhxwM0NdP7Jds4T9FonD
p703
aV2AIptHntsv7JB77CrpMHHn
p704
aV0vBKi7SULIEzXDrMqhzRQo
p705
aV3mebEndwrERJZCTUxsAI15
p706
aV1sNNawW47xSt5nSYuAtiS0
p707
aV5tfpRDknG17dA6hIdlCKw0
p708
asVLayla And Other Assorted Love Songs (Deluxe Edition)
p709
(lp710
V0ZNLrkF2WEldsF3e89FuZh
p711
aV7ouZzOt2Dp1rfHtB9UTdCd
p712
aV6JEoH02hAIdLg42CiH4Keg
p713
aV2gcxuLIt0UqWEvA8G9SPZS
p714
aV6w6a5NTOBDmtokaL7XLLma
p715
aV2hu0Dutajw0XGlIEncp9r4
p716
aV2qWKx1nz92TagX3ev7ixXv
p717
aV7v02yXbtoblovSeH5X3QBh
p718
aV7cT70z4xRqg3zbKoeMg5iB
p719
aV222crew3tEir2UscC1rjCe
p720
aV0dLsIMPbZeuLNmofznoeTs
p721
aV7tE2inlklB6bMFcIZ36wYA
p722
aV4OcTjNItuEI4wjl9LOPoIm
p723
aV6uzCGK712IiW0W45VqfnyS
p724
aV5vQ9hxKUMCisn1v1nGjXgo
p725
aV6Pk6NyWD2rqD0kowEwfBLm
p726
aV5FAHQLwAn4Xxgc33a4dvBj
p727
aV1XCnoSA8Ry9lHBbyVqaMIL
p728
aV5YIFlNG2uFRFMBLwoqIyux
p729
aV5ZYV8c9AvIBOzbAsjBLrlE
p730
aV3PabKvKtTwWkYzRhONWtaa
p731
aV1PwQXUFoHqyfIuk7ranRh7
p732
aV4Jb1ZDYJYWg9rNR2R60QbA
p733
aV02NWofTAUFBaO5n1k1w7hI
p734
aV0qL4lnFD7xzhhDz2ObqsxL
p735
aV64Y6waMfgUYdVe8LcjKXS2
p736
aV4qJiEBTc44kHSb8S0BkC3u
p737
asVDerek & The Dominos In Concert (Live)
p738
(lp739
V02RDTSLWoJeM4hd8pJzGlo
p740
aV6OdI92IvoibUeatOZG8J6R
p741
aV3OSqpdcSJFaKBoFjlmOToi
p742
aV0ByF9EfOcIxkpkX3naALYY
p743
aV5Epyz0zXMYINMlCvAxdK4T
p744
aV5rmBDOts0c8Ar8IzjPihgF
p745
aV3PBRTNVVVZyIKa6CRlfGWH
p746
aV12BmHTZhPJ7Rsvo7Jdg0n3
p747
aV0RFoDx9gPRaxCLQBWD2Vmr
p748
asVLive At The Fillmore
p749
(lp750
V78LN1TC4UVIQhW8QhGkxvp
p751
aV5SEvCBDov83dFbFf62oBXI
p752
aV0xYBRARxLDWqGGcjFtUMTb
p753
aV4CF0EB6RLGdSk0ZSPDqWO4
p754
aV7LbNDIViMlo20HcAne0aQ4
p755
aV0Ed0WKLbjYiyghFJ6V5opL
p756
aV6YsSPTf3M6nivwcIPlKHah
p757
aV4rZKNQsSI06p84Szv5r3O7
p758
aV4pYvLekfgZGUyYGcSgBY5M
p759
aV1QkgzTl5Sz8BN0F68NNtiI
p760
aV099z0pBmbnIKUHIH2G2HAq
p761
aV5mO0n55AS9sqscu4nEO4sr
p762
aV1kF7dbn2o3b1HjQrRc12Bx
p763
asVLayla And Other Assorted Love Songs (40th Anniversary / 2010 Remastered)
p764
(lp765
V2xNruEPnV3JHJ9qvHvcEF3
p766
aV2YJgM8lj4u5YEZRSHSfL60
p767
aV6QwOmMMlQ9dlZlS12yFc2b
p768
aV0xvRoqvLmijll3D5qTnrRP
p769
aV1JedX5wEESMiktPb9DwqvH
p770
aV1mXVgbMGX8YGBm5KNcMh4i
p771
aV1iDEGFxf1S2ZOy8xGF3dhJ
p772
aV1w2fR7E6qOVDQGSFdYatbs
p773
aV6S5DtyJNXTgHEXIVUToAPP
p774
aV2ROJOb98GorxStuOuZWcGd
p775
aV2Wq9vCNpcpJOhsZb1JvLhH
p776
aV3z22I9KvX08FKIlLFQHj97
p777
aV2kkvB3RNRzwjFdGhaUA0tz
p778
aV6gZvsNkfeeEbN2shppEPto
p779
asVThe Layla Sessions
p780
(lp781
V1B20xHjiDwirgLJWjvs1LU
p782
aV1u8EIHH7nQ2pTjaifMwy4h
p783
aV7fRN3zdAkbMSB4fjk2YaD6
p784
aV4Uwno0Vk8Onh37MXJ0PbNu
p785
aV12Pj6BmjG7zdRtgHofmXSR
p786
aV7sJkJ1NHmRMUhSa5TFTxeA
p787
aV4Zapt4cH4gHsgjNxyz6JmV
p788
aV2sa7ShTzSSTNPuDiiiU4am
p789
aV6cX6ES05bHb9L6hR56aiHp
p790
aV1yAudeCxO7ztE04lBCpUBA
p791
aV5CaTOXN0wfZjEQ5FPYGQ4z
p792
aV6Xxf5Z09v2gW9KwiMCOgwq
p793
aV67FIh7ETAWWDA86vBfElic
p794
aV5j8z932qOpEHQ3TulqlZGd
p795
aV5oAYRpW0qMBfNBRQx9td1q
p796
aV5wv1HIOhgYTsTcEV4OFonD
p797
aV5rOy0WM7EO1D4tQWXg9gau
p798
aV2gt4d0DSXdXtNGaykeONjc
p799
aV0iCQoi3whrXFlFA6E3aROp
p800
aV0zyek6DNAFkVkNCkgcaiFK
p801
aV0X9K2Q4vER1gFhCvbktkod
p802
aV0sgbmO4yVY5w3PVuGM1KRS
p803
aV0o8kROF8dtfO5sddrnCYs8
p804
aV5ff8vI8XAtdoGNBjkOdw7f
p805
aV6fPqz2BVbxXVqWSoq44uG0
p806
aV4U5h1JItAxYm7q4HtaqXUC
p807
aV0wZuUTAloEilfcLURTNAkG
p808
aV0idcM7q3QfeLdj6RgLx1FV
p809
aV6P0qIPWfVKFmJrAoJ9zitX
p810
assS'Keane'
p811
(dp812
VHopes and Fears (Deluxe Edition)
p813
(lp814
V6OOk7nYKqKTCIQunirsVht
p815
aV5Ule3XcNnLx83kRfkCTsP0
p816
aV6T67GrANGOOPye2UDlJE9X
p817
aV3DlyHvU6blSBCJqzlJlVFK
p818
aV6l9pwZPZI6sY6VjktYjA77
p819
aV1NEtD7I74SuGWMqFIusPnA
p820
aV1fTI34PW83SjqQHKqI7COv
p821
aV6Z1R4EO5xi8VcHTkStzOxR
p822
aV1HGxAlh86G1cJklr32TPsw
p823
aV4Scl9wOwV0Z6csAmNJXPjm
p824
aV3NtIcyzo9zxAsn0sfE7eZ7
p825
aV7s6GDw9mdMzt1McBKhEb0E
p826
aV5UsrGX32KY843vUzHnF8tU
p827
aV0hk38wYGdhjtFWVGj8y9zC
p828
aV7bWbrNH9eGNZ9reVwrA3yG
p829
aV1sfe7V1ucbQ0ohRGfB1v8H
p830
aV1UcLFhwFaLH0wskeWL0HMc
p831
aV7BA42GDj2UNkrpsf5bCIaA
p832
aV3ecR05az0L8F4ocH8ZuStl
p833
aV3yWmAwFNCrpdvc8nLeUimc
p834
aV2Rnxu2iC70Bf2iGOmgykbN
p835
aV4q1SE42JPCUF0rBuVhqvPv
p836
aV3YY3MXhB7TV69Q62DqpBov
p837
aV0VvQWdy6EEolJZbsh3bJup
p838
aV5sslKvMPKPaijEH1Heqaub
p839
aV4lvflU9iQAKmVqytR4woj2
p840
aV5pkVx7VeQa5zQg0xM6Fhug
p841
aV1VdiQsuk58zTUmh5BYSziR
p842
aV0p1mjA7diE7Zyz6HF66W3m
p843
aV1tgNoO2B13TvQsfGo91nWS
p844
aV7hp673tpKGl6I83E8eGgiB
p845
aV1lTfZ7drSQLOLrnq6tR0Kw
p846
aV6f6eSX7DQ5i6IQwbtInDlm
p847
aV18CJsvS9eyHrZ0TkTN1BUx
p848
aV6YcR4buscEDLrDVRbzXgbF
p849
aV498FvnfizSD8hBgFTPOjzG
p850
aV40UIpI9yD3wB3zv8r5mT76
p851
asVStrangeland (Deluxe Version)
p852
(lp853
V6Gnks96Ein3A7S3g1fDlWf
p854
aV6ovxhuEp4zsnJLvNKnQiBL
p855
aV0MXkooAaLh7EiNMqD0vhED
p856
aV6eIFc2RKSJYK37Ospy6Nxh
p857
aV0JWkDEiPE0Wmywa3Ws2rWw
p858
aV1sAju0j7q4L09ynwEFQQPn
p859
aV0OWpeReAF7tJojOrfUqKRQ
p860
aV575QxYiBezic1YhcP7ztqT
p861
aV5sPfWZrV76iEYuP2PI9Z6k
p862
aV6rI1l9DmGmWz1f7Bgge9Rl
p863
aV4L11TLjAVafBgNKdHZtXl2
p864
aV4fJvVRm7KlB0C6ZwHXMXmA
p865
aV1WEZTMbalh8N2UGTzJKyo5
p866
aV6qg7HucMqAbUilsVvSJzgE
p867
aV7o4aH905FGnyUPPLTAfedP
p868
aV6tOHQpFjIsEvRKdezoOLhE
p869
asVStrangeland (Bonus Track Version)
p870
(lp871
V2O748MOUwfYrYHZDTImOeA
p872
aV7BpcWdB4AfrrcopqQciFNH
p873
aV6zqhbKHcqMwosPSJGGaRZG
p874
aV37IDEFXfX9t5AeEqew6Plz
p875
aV2hEtLlyNH0NPSbg1Db2tGC
p876
aV55S6wdddIJlSCRaeH3V9rG
p877
aV71cMGTMvzfZcxVNIrQnLiF
p878
aV21J0WTV1iHSGcOMyMrPHqj
p879
aV0jnKDl1sxATSuePpbFvFts
p880
aV66gWVc2Dk6RYmrOrikPHzS
p881
aV2Uazys25ajXoRbnGaZrtvb
p882
aV26noejzXpnQ5D5xHTQIS2T
p883
aV6AOkcKBSsNnvIucwc6RcIx
p884
aV4EsYcjbYLLhgMm7L2xB0bk
p885
aV7jc66G8Hp3Squi2fRdBACK
p886
aV6UD5kZf9FD7rg6h2BErYSX
p887
aV5twzXDsuJMCGiI0GxHj7Qr
p888
aV1mrTPmxPmBJDovjLj6kgA0
p889
aV4xMW2IBopRXVr6V8Jkp3hz
p890
aV7j38gU2TaMofh0UHTlXsAG
p891
aV7bxbI7SB0COei2nfS867mS
p892
asVNight Train
p893
(lp894
V5UrkI78XPSr1FgiA5FlAr1
p895
aV0wN7YFlPbUGbcxZPXWsX7K
p896
aV1CzyI9CsCUb0RtKgIrzxLn
p897
aV3XBlIxTgOofcCYDBYF60AF
p898
aV69bWk6H3r49DJG5brEvxRc
p899
aV4zzIlgOJlA1J6Hxs8fCHUB
p900
aV4HnrCm34TxMWSPiMpXF6Kb
p901
aV6iMouY4Up4C9ViPeLL28jR
p902
asVPerfect Symmetry
p903
(lp904
V4aG5zAaNOj4qWTiDxvKY6b
p905
aV2YL7cMJtMuAFa96Mi6aGbP
p906
aV1SKTbpb1EsylW5njLq3RD8
p907
aV0VSkuGzajXhyyauS2eLsSD
p908
aV1AmMLTnFtvH8bF463asd3h
p909
aV4Nlq6TIIAUcxW2QuZ0oXKi
p910
aV4KCEOldAAdw0Yzw7qazHHq
p911
aV0z4t0JHNoaUouYchUXJQrF
p912
aV543m1IALrVQSrdXfKfyz18
p913
aV6hMBXfJCLXew6R4pfSfeZR
p914
aV08XDXvsxTA1mPfcj7cbgo4
p915
asVStrangeland
p916
(lp917
V6klCzCgfcfNE1ii12WbfPn
p918
aV6egcrAqfnqYCgsF6ANPras
p919
aV2M5FnjndyApT2PLq7J4FNO
p920
aV0O3DY1nnuZI4uYAk31qc2I
p921
aV38v9pKVik1eEJhpSuh97oc
p922
aV7npDMYrWBinJmMTq4Hjlc3
p923
aV1nlSWEZFWzlkcY9xSbXSQJ
p924
aV1M3rySPl2d90i8nz54TPbI
p925
aV54s8UOK4CIiE2AtlPeKc6X
p926
aV1i9h8jS1E0uDq0aadwqWEA
p927
aV08tPgbgTCxpPYVAmVPWuVC
p928
aV7yG9YNGOdc5KOAUWY8w9OY
p929
asVThe Best Of Keane
p930
(lp931
V6hpDMWlzMz5XYGRaOAMO4z
p932
aV3NDhKtd9RMJRxevIsDgIax
p933
aV7km95ZyOYSj4jcQbHKfTAf
p934
aV4z3KrHWKIuZU7OHj06lEVH
p935
aV6jg6GUEAgTT2vsdjRsadoJ
p936
aV1ArhTTV8J4PTGmdayG1wPd
p937
aV7uvK9jZZJ0D6eFZGdlVvvc
p938
aV1Hfvndy2EKJhc9rnuy1lB7
p939
aV59aw5lXI7XHflL5zptOq1r
p940
aV4Vv6AHvrrwdMQ1KNIvcuBI
p941
aV3e723Lej8vdPBZWC38Du6X
p942
aV3mCfE1Bpkbqs43cn7umnyD
p943
aV67FPZEEW1bzaJRFigaunNB
p944
aV0watxV2JAuh0ynBvyoQYUD
p945
aV5imGLA1TCZxj1XhbHg1aBf
p946
aV7kqUw6kLH07YbwSsmt7mv6
p947
aV5z5WJVTVygJ1j2JrLupFgV
p948
aV6RSVIVkxiCbG9a1z48gU0a
p949
aV0I67XU9xOD2ptzwluiYgKT
p950
aV1sKHyjgqSO9mkTkZB60TUQ
p951
asVThe Best Of Keane (Deluxe Edition)
p952
(lp953
V4mgiTb6ZCiq1VjeTvS5301
p954
aV7AQAlklmptrrkBSeujkXsD
p955
aV3BHmBDPkETBm3isxkgjUZK
p956
aV2hcG0Z9QkAbbAwdij6laqS
p957
aV3sslLtK8rqYqWsd7hLZKSk
p958
aV7oUBEQNFk5F8jRiFg5QKCJ
p959
aV13SdYD06T4Cch58i9P6moX
p960
aV6PCIeuVdyH1cnG5sAc3wCD
p961
aV32NmRR6B00DGINFc5d7jnd
p962
aV38XCZPDdKpjnO41rOwWt3C
p963
aV6um959HPbRnE0J8qfIlcyC
p964
aV1Y2sLbWMtO4rp8fMdnMNSI
p965
aV6ddnsGbHiUVA4nxvIwLMri
p966
aV01c65VW4oszVjYNOoLzymZ
p967
aV62t8x89apDJFvoqEmt5vQu
p968
aV0FAk6SU4P87rUHSo6OhpGR
p969
aV1oWGAyArCCrxAeRQ4Z32n5
p970
aV0eCQbSnDaGd6XTmuj3gX9v
p971
aV6M8wuWJiuDnznD7zta1oTg
p972
aV44a14aI4PYYocxhMOFcsc0
p973
aV5D4CMPHRumil7CUrjUH8XZ
p974
aV2772z1nmiTU6hVs4kjn2uq
p975
aV3Bf9nv32awaGVdviHbmp8Q
p976
aV3Nz8ypMx8xRmkhZoLWbCHf
p977
aV5Gj8XHYOojEes6hhwFqSnI
p978
aV7axpLYoRWcrIDjBANfoH9S
p979
aV0q6Nsb5tV611gXOZTppHjV
p980
aV2c94EJJBwRg144lc9V8VOh
p981
aV5pZcbapo53ck9Si7BFcTml
p982
aV31dHe2I4tzOKT0ypVpVsuu
p983
aV44X4BzcafDfiQBsHmrnAW2
p984
aV289m4L3lfUzAFBpxRcPULn
p985
aV2lkWcj2N4GWoxwLOOWTSBo
p986
aV0v318M5Tqy6AJIqOoR5Lwn
p987
aV7AZ7m1u0NVP2RUURVBOr3r
p988
aV5oOyATG51Mg7cjaAdg0cB4
p989
aV7orzlbMyjjqCOpoad3RHAK
p990
aV3OrX7szGHfHZ8uFEIunh5B
p991
ass.